# dlltool --dllname smaug.exe --output-exp smaug.exp --def smaug.def 
#  0 = wis_app wis_app @ 1 DATA
#  1 = EXA_prog_trigger EXA_prog_trigger @ 2 DATA
#  2 = MAX_PC_CLASS MAX_PC_CLASS @ 3 DATA
#  3 = MAX_PC_RACE MAX_PC_RACE @ 4 DATA
#  4 = MOBtrigger MOBtrigger @ 5 DATA
#  5 = _Z10RelDestroy13relation_typePvS0_ _Z10RelDestroy13relation_typePvS0_ @ 6 
#  6 = _Z10accept_newi _Z10accept_newi @ 7 
#  7 = _Z10act_stringPKcP9char_dataS2_PKvS4_i _Z10act_stringPKcP9char_dataS2_PKvS4_i @ 8 
#  8 = _Z10actiondescP9char_dataP8obj_data _Z10actiondescP9char_dataP8obj_data @ 9 
#  9 = _Z10add_rosterP9clan_dataPKciiii _Z10add_rosterP9clan_dataPKciiii @ 10 
#  10 = _Z10add_socialP11social_type _Z10add_socialP11social_type @ 11 
#  11 = _Z10can_astralP9char_dataS0_ _Z10can_astralP9char_dataS0_ @ 12 
#  12 = _Z10can_removeP9char_dataP10board_data _Z10can_removeP9char_dataP10board_data @ 13 
#  13 = _Z10capitalizePKc _Z10capitalizePKc @ 14 
#  14 = _Z10carried_byP8obj_data _Z10carried_byP8obj_data @ 15 
#  15 = _Z10ch_slookupP9char_dataPKc _Z10ch_slookupP9char_dataPKc @ 16 
#  16 = _Z10char_checkv _Z10char_checkv @ 17 
#  17 = _Z10check_bansP9char_datai _Z10check_bansP9char_datai @ 18 
#  18 = _Z10check_gripP9char_dataS0_ _Z10check_gripP9char_dataS0_ @ 19 
#  19 = _Z10check_hashPKc _Z10check_hashPKc @ 20 
#  20 = _Z10check_saveiiP9char_dataS0_ _Z10check_saveiiP9char_dataS0_ @ 21 
#  21 = _Z10clean_roomP15room_index_data _Z10clean_roomP15room_index_data @ 22 
#  22 = _Z10clear_charP9char_data _Z10clear_charP9char_data @ 23 
#  23 = _Z10clear_roomii _Z10clear_roomii @ 24 
#  24 = _Z10close_areaP9area_data _Z10close_areaP9area_data @ 25 
#  25 = _Z10copy_morphP10morph_dataS0_ _Z10copy_morphP10morph_dataS0_ @ 26 
#  26 = _Z10could_dualP9char_data _Z10could_dualP9char_data @ 27 
#  27 = _Z10countlangsi _Z10countlangsi @ 28 
#  28 = _Z10damage_objP8obj_data _Z10damage_objP8obj_data @ 29 
#  29 = _Z10delete_mobP14mob_index_data _Z10delete_mobP14mob_index_data @ 30 
#  30 = _Z10delete_objP14obj_index_data _Z10delete_objP14obj_index_data @ 31 
#  31 = _Z10dice_parseP9char_dataiPKc _Z10dice_parseP9char_dataiPKc @ 32 
#  32 = _Z10do_mprmtagP9char_dataPKc _Z10do_mprmtagP9char_dataPKc @ 33 
#  33 = _Z10do_mpstrewP9char_dataPKc _Z10do_mpstrewP9char_dataPKc @ 34 
#  34 = _Z10do_unmorphP9char_data _Z10do_unmorphP9char_data @ 35 
#  35 = _Z10equip_charP9char_dataP8obj_datai _Z10equip_charP9char_dataP8obj_datai @ 36 
#  36 = _Z10find_boardP9char_data _Z10find_boardP9char_data @ 37 
#  37 = _Z10find_fixerP9char_data _Z10find_fixerP9char_data @ 38 
#  38 = _Z10find_morphP9char_dataPKcb _Z10find_morphP9char_dataPKcb @ 39 
#  39 = _Z10find_quillP9char_data _Z10find_quillP9char_data @ 40 
#  40 = _Z10find_skillP9char_dataPKcb _Z10find_skillP9char_dataPKcb @ 41 
#  41 = _Z10find_spellP9char_dataPKcb _Z10find_spellP9char_dataPKcb @ 42 
#  42 = _Z10find_whogrP15descriptor_dataP7whogr_s _Z10find_whogrP15descriptor_dataP7whogr_s @ 43 
#  43 = _Z10found_preyP9char_dataS0_ _Z10found_preyP9char_dataS0_ @ 44 
#  44 = _Z10fread_cellP9__sFILE64ii _Z10fread_cellP9__sFILE64ii @ 45 
#  45 = _Z10fread_charP9char_dataP9__sFILE64bb _Z10fread_charP9char_dataP9__sFILE64bb @ 46 
#  46 = _Z10fread_clanP9clan_dataP9__sFILE64 _Z10fread_clanP9clan_dataP9__sFILE64 @ 47 
#  47 = _Z10fread_lineP9__sFILE64 _Z10fread_lineP9__sFILE64 @ 48 
#  48 = _Z10fread_newsP9news_dataP9__sFILE64 _Z10fread_newsP9news_dataP9__sFILE64 @ 49 
#  49 = _Z10fread_wordP9__sFILE64 _Z10fread_wordP9__sFILE64 @ 50 
#  50 = _Z10free_boardP10board_data _Z10free_boardP10board_data @ 51 
#  51 = _Z10free_clansv _Z10free_clansv @ 52 
#  52 = _Z10free_deityP10deity_data _Z10free_deityP10deity_data @ 53 
#  53 = _Z10free_fightP9char_data _Z10free_fightP9char_data @ 54 
#  54 = _Z10free_helpsv _Z10free_helpsv @ 55 
#  55 = _Z10free_morphP10morph_data _Z10free_morphP10morph_data @ 56 
#  56 = _Z10free_planeP10plane_data _Z10free_planeP10plane_data @ 57 
#  57 = _Z10free_skillP10skill_type _Z10free_skillP10skill_type @ 58 
#  58 = _Z10fwrite_objP9char_dataP8obj_dataP9__sFILE64isb _Z10fwrite_objP9char_dataP8obj_dataP9__sFILE64isb @ 59 
#  59 = _Z10get_exflagPKc _Z10get_exflagPKc @ 60 
#  60 = _Z10get_mpflagPKc _Z10get_mpflagPKc @ 61 
#  61 = _Z10get_pcflagPKc _Z10get_pcflagPKc @ 62 
#  62 = _Z10get_sclassPKc _Z10get_sclassPKc @ 63 
#  63 = _Z10get_spowerPKc _Z10get_spowerPKc @ 64 
#  64 = _Z10group_gainP9char_dataS0_ _Z10group_gainP9char_dataS0_ @ 65 
#  65 = _Z10hash_statsv _Z10hash_statsv @ 66 
#  66 = _Z10hide_tildePc _Z10hide_tildePc @ 67 
#  67 = _Z10init_chessv _Z10init_chessv @ 68 
#  68 = _Z10isDownpouri _Z10isDownpouri @ 69 
#  69 = _Z10isFreezingi _Z10isFreezingi @ 70 
#  70 = _Z10isVeryColdi _Z10isVeryColdi @ 71 
#  71 = _Z10is_fearingP9char_dataS0_ _Z10is_fearingP9char_dataS0_ @ 72 
#  72 = _Z10is_huntingP9char_dataS0_ _Z10is_huntingP9char_dataS0_ @ 73 
#  73 = _Z10is_note_toP9char_dataP9note_data _Z10is_note_toP9char_dataP9note_data @ 74 
#  74 = _Z10is_trappedP8obj_data _Z10is_trappedP8obj_data @ 75 
#  75 = _Z10legal_lootP9char_dataS0_ _Z10legal_lootP9char_dataS0_ @ 76 
#  76 = _Z10load_clansv _Z10load_clansv @ 77 
#  77 = _Z10load_deityv _Z10load_deityv @ 78 
#  78 = _Z10load_flagsP9area_dataP9__sFILE64 _Z10load_flagsP9area_dataP9__sFILE64 @ 79 
#  79 = _Z10load_helpsP9__sFILE64 _Z10load_helpsP9__sFILE64 @ 80 
#  80 = _Z10load_racesv _Z10load_racesv @ 81 
#  81 = _Z10load_roomsP9area_dataP9__sFILE64 _Z10load_roomsP9area_dataP9__sFILE64 @ 82 
#  82 = _Z10load_shopsP9__sFILE64 _Z10load_shopsP9__sFILE64 @ 83 
#  83 = _Z10load_worldv _Z10load_worldv @ 84 
#  84 = _Z10log_printfPKcz _Z10log_printfPKcz @ 85 
#  85 = _Z10mail_countP9char_data _Z10mail_countP9char_data @ 86 
#  86 = _Z10make_bloodP9char_data _Z10make_bloodP9char_data @ 87 
#  87 = _Z10make_resetciiii _Z10make_resetciiii @ 88 
#  88 = _Z10mssp_replyP15descriptor_dataPKcS2_z _Z10mssp_replyP15descriptor_dataPKcS2_z @ 89 
#  89 = _Z10mudstrlcatPcPKcj _Z10mudstrlcatPcPKcj @ 90 
#  90 = _Z10mudstrlcpyPcPKcj _Z10mudstrlcpyPcPKcj @ 91 
#  91 = _Z10obj_to_objP8obj_dataS0_ _Z10obj_to_objP8obj_dataS0_ @ 92 
#  92 = _Z10obj_updatev _Z10obj_updatev @ 93 
#  93 = _Z10pullorpushP9char_dataP8obj_datab _Z10pullorpushP9char_dataP8obj_datab @ 94 
#  94 = _Z10quick_linkPKc _Z10quick_linkPKc @ 95 
#  95 = _Z10read_boardP9__sFILE64 _Z10read_boardP9__sFILE64 @ 96 
#  96 = _Z10read_planeP9__sFILE64 _Z10read_planeP9__sFILE64 @ 97 
#  97 = _Z10remove_objP9char_dataib _Z10remove_objP9char_dataib @ 98 
#  98 = _Z10remove_tagP9char_dataPci _Z10remove_tagP9char_dataPci @ 99 
#  99 = _Z10reset_areaP9area_data _Z10reset_areaP9area_data @ 100 
#  100 = _Z10reset_roomP15room_index_data _Z10reset_roomP15room_index_data @ 101 
#  101 = _Z10ris_damageP9char_datasi _Z10ris_damageP9char_datasi @ 102 
#  102 = _Z10save_deityP10deity_data _Z10save_deityP10deity_data @ 103 
#  103 = _Z10save_racesv _Z10save_racesv @ 104 
#  104 = _Z10save_worldv _Z10save_worldv @ 105 
#  105 = _Z10sec_to_hmslPc _Z10sec_to_hmslPc @ 106 
#  106 = _Z10send_timerP8timersetP9char_data _Z10send_timerP8timersetP9char_data @ 107 
#  107 = _Z10show_tildePKc _Z10show_tildePKc @ 108 
#  108 = _Z10show_titleP15descriptor_data _Z10show_titleP15descriptor_data @ 109 
#  109 = _Z10show_vnumsP9char_dataiibbPKcS2_ _Z10show_vnumsP9char_dataiibbPKcS2_ @ 110 
#  110 = _Z10showaffectP9char_dataP11affect_data _Z10showaffectP9char_dataP11affect_data @ 111 
#  111 = _Z10skill_compPP10skill_typeS1_ _Z10skill_compPP10skill_typeS1_ @ 112 
#  112 = _Z10sort_exitsP15room_index_data _Z10sort_exitsP15room_index_data @ 113 
#  113 = _Z10stamp_timev _Z10stamp_timev @ 114 
#  114 = _Z10start_fallv _Z10start_fallv @ 115 
#  115 = _Z10str_prefixPKcS0_ _Z10str_prefixPKcS0_ @ 116 
#  116 = _Z10str_suffixPKcS0_ _Z10str_suffixPKcS0_ @ 117 
#  117 = _Z10tail_chainv _Z10tail_chainv @ 118 
#  118 = _Z10teleportchP9char_dataP15room_index_datab _Z10teleportchP9char_dataP15room_index_datab @ 119 
#  119 = _Z10to_channelPKciS0_s _Z10to_channelPKciS0_s @ 120 
#  120 = _Z10trvch_nextP8trv_data _Z10trvch_nextP8trv_data @ 121 
#  121 = _Z10update_posP9char_data _Z10update_posP9char_data @ 122 
#  122 = _Z10valid_edgeP9exit_data _Z10valid_edgeP9exit_data @ 123 
#  123 = _Z10warn_progsP9char_dataiiP9area_dataP14renumber_areas _Z10warn_progsP9char_dataiiP9area_dataP14renumber_areas @ 124 
#  124 = _Z10write_hintv _Z10write_hintv @ 125 
#  125 = _Z10xp_computeP9char_dataS0_ _Z10xp_computeP9char_dataS0_ @ 126 
#  126 = _Z11SHA256_InitP13SHA256Context _Z11SHA256_InitP13SHA256Context @ 127 
#  127 = _Z11add_commandP8cmd_type _Z11add_commandP8cmd_type @ 128 
#  128 = _Z11affect_joinP9char_dataP11affect_data _Z11affect_joinP9char_dataP11affect_data @ 129 
#  129 = _Z11aggr_updatev _Z11aggr_updatev @ 130 
#  130 = _Z11append_fileP9char_dataPKcS2_ _Z11append_fileP9char_dataPKcS2_ @ 131 
#  131 = _Z11area_updatev _Z11area_updatev @ 132 
#  132 = _Z11aris_affectP9char_dataP11affect_data _Z11aris_affectP9char_dataP11affect_data @ 133 
#  133 = _Z11assign_areaP9char_data _Z11assign_areaP9char_data @ 134 
#  134 = _Z11auth_updatev _Z11auth_updatev @ 135 
#  135 = _Z11bfs_dequeuev _Z11bfs_dequeuev @ 136 
#  136 = _Z11bfs_enqueueP15room_index_datac _Z11bfs_enqueueP15room_index_datac @ 137 
#  137 = _Z11calc_seasonv _Z11calc_seasonv @ 138 
#  138 = _Z11can_carry_nP9char_data _Z11can_carry_nP9char_data @ 139 
#  139 = _Z11can_carry_wP9char_data _Z11can_carry_wP9char_data @ 140 
#  140 = _Z11can_mmodifyP9char_dataS0_ _Z11can_mmodifyP9char_dataS0_ @ 141 
#  141 = _Z11can_omodifyP9char_dataP8obj_data _Z11can_omodifyP9char_dataP8obj_data @ 142 
#  142 = _Z11can_outcastP9clan_dataP9char_dataS2_ _Z11can_outcastP9clan_dataP9char_dataS2_ @ 143 
#  143 = _Z11can_rmodifyP9char_dataP15room_index_data _Z11can_rmodifyP9char_dataP15room_index_data @ 144 
#  144 = _Z11can_see_objP9char_dataP8obj_data _Z11can_see_objP9char_dataP8obj_data @ 145 
#  145 = _Z11char_updatev _Z11char_updatev @ 146 
#  146 = _Z11check_blindP9char_data _Z11check_blindP9char_data @ 147 
#  147 = _Z11check_dodgeP9char_dataS0_ _Z11check_dodgeP9char_dataS0_ @ 148 
#  148 = _Z11check_parryP9char_dataS0_ _Z11check_parryP9char_dataS0_ @ 149 
#  149 = _Z11check_skillP9char_dataPcS1_ _Z11check_skillP9char_dataPcS1_ @ 150 
#  150 = _Z11check_vnumsP9char_dataP9area_dataP14renumber_areas _Z11check_vnumsP9char_dataP9area_dataP14renumber_areas @ 151 
#  151 = _Z11clear_coordii _Z11clear_coordii @ 152 
#  152 = _Z11color_alignPKcii _Z11color_alignPKcii @ 153 
#  153 = _Z11compressEndP15descriptor_data _Z11compressEndP15descriptor_data @ 154 
#  154 = _Z11copy_bufferP9char_data _Z11copy_bufferP9char_data @ 155 
#  155 = _Z11count_linesPc _Z11count_linesPc @ 156 
#  156 = _Z11create_areav _Z11create_areav @ 157 
#  157 = _Z11delete_roomP15room_index_data _Z11delete_roomP15room_index_data @ 158 
#  158 = _Z11dispose_banP8ban_datai _Z11dispose_banP8ban_datai @ 159 
#  159 = _Z11do_compressP9char_dataPKc _Z11do_compressP9char_dataPKc @ 160 
#  160 = _Z11do_mprmflagP9char_dataPKc _Z11do_mprmflagP9char_dataPKc @ 161 
#  161 = _Z11echo_to_allsPKcs _Z11echo_to_allsPKcs @ 162 
#  162 = _Z11economy_hasP9area_datai _Z11economy_hasP9area_datai @ 163 
#  163 = _Z11edit_bufferP9char_dataPc _Z11edit_bufferP9char_dataPc @ 164 
#  164 = _Z11encumbranceP9char_datas _Z11encumbranceP9char_datas @ 165 
#  165 = _Z11extract_objP8obj_data _Z11extract_objP8obj_data @ 166 
#  166 = _Z11figure_typePKc _Z11figure_typePKc @ 167 
#  167 = _Z11find_keeperP9char_data _Z11find_keeperP9char_data @ 168 
#  168 = _Z11find_oresetP15room_index_dataPKc _Z11find_oresetP15room_index_dataPKc @ 169 
#  169 = _Z11find_socialPKc _Z11find_socialPKc @ 170 
#  170 = _Z11find_tongueP9char_dataPKcb _Z11find_tongueP9char_dataPKcb @ 171 
#  171 = _Z11find_weaponP9char_dataPKcb _Z11find_weaponP9char_dataPKcb @ 172 
#  172 = _Z11flag_stringiPKPKc _Z11flag_stringiPKPKc @ 173 
#  173 = _Z11fread_deityP10deity_dataP9__sFILE64 _Z11fread_deityP10deity_dataP9__sFILE64 @ 174 
#  174 = _Z11fread_morphP9__sFILE64 _Z11fread_morphP9__sFILE64 @ 175 
#  175 = _Z11fread_skillP9__sFILE64 _Z11fread_skillP9__sFILE64 @ 176 
#  176 = _Z11free_boardsv _Z11free_boardsv @ 177 
#  177 = _Z11free_morphsv _Z11free_morphsv @ 178 
#  178 = _Z11free_skillsv _Z11free_skillsv @ 179 
#  179 = _Z11free_socialP11social_type _Z11free_socialP11social_type @ 180 
#  180 = _Z11fwrite_charP9char_dataP9__sFILE64 _Z11fwrite_charP9char_dataP9__sFILE64 @ 181 
#  181 = _Z11getHumidityP11WeatherCell _Z11getHumidityP11WeatherCell @ 182 
#  182 = _Z11getPressureP11WeatherCell _Z11getPressureP11WeatherCell @ 183 
#  183 = _Z11get_actflagPKc _Z11get_actflagPKc @ 184 
#  184 = _Z11get_climatePc _Z11get_climatePc @ 185 
#  185 = _Z11get_cmdflagPKc _Z11get_cmdflagPKc @ 186 
#  186 = _Z11get_councilPKc _Z11get_councilPKc @ 187 
#  187 = _Z11get_eq_charP9char_datai _Z11get_eq_charP9char_datai @ 188 
#  188 = _Z11get_exit_toP15room_index_datasi _Z11get_exit_toP15room_index_datasi @ 189 
#  189 = _Z11get_holidayss _Z11get_holidayss @ 190 
#  190 = _Z11get_langnumPKc _Z11get_langnumPKc @ 191 
#  191 = _Z11get_npc_sexPKc _Z11get_npc_sexPKc @ 192 
#  192 = _Z11get_objtypeP9char_datas _Z11get_objtypeP9char_datas @ 193 
#  193 = _Z11get_pc_racePKc _Z11get_pc_racePKc @ 194 
#  194 = _Z11get_plrflagPKc _Z11get_plrflagPKc @ 195 
#  195 = _Z11get_risflagPKc _Z11get_risflagPKc @ 196 
#  196 = _Z11get_sactionPKc _Z11get_sactionPKc @ 197 
#  197 = _Z11get_sdamagePKc _Z11get_sdamagePKc @ 198 
#  198 = _Z11get_secflagPKc _Z11get_secflagPKc @ 199 
#  199 = _Z11get_stargetPKc _Z11get_stargetPKc @ 200 
#  200 = _Z11get_wearlocPKc _Z11get_wearlocPKc @ 201 
#  201 = _Z11herb_lookupPKc _Z11herb_lookupPKc @ 202 
#  202 = _Z11hint_updatev _Z11hint_updatev @ 203 
#  203 = _Z11hunt_victimP9char_data _Z11hunt_victimP9char_data @ 204 
#  204 = _Z11init_socketi _Z11init_socketi @ 205 
#  205 = _Z11interpolateiii _Z11interpolateiii @ 206 
#  206 = _Z11isCalmWindEi _Z11isCalmWindEi @ 207 
#  207 = _Z11isCalmWindNi _Z11isCalmWindNi @ 208 
#  208 = _Z11isCalmWindSi _Z11isCalmWindSi @ 209 
#  209 = _Z11isCalmWindWi _Z11isCalmWindWi @ 210 
#  210 = _Z11isDrizzlingi _Z11isDrizzlingi @ 211 
#  211 = _Z11isTemperatei _Z11isTemperatei @ 212 
#  212 = _Z11is_affectedP9char_datai _Z11is_affectedP9char_datai @ 213 
#  213 = _Z11is_ignoringP9char_dataS0_ _Z11is_ignoringP9char_dataS0_ @ 214 
#  214 = _Z11liq_can_mixP8obj_dataS0_ _Z11liq_can_mixP8obj_dataS0_ @ 215 
#  215 = _Z11load_authorP9area_dataP9__sFILE64 _Z11load_authorP9area_dataP9__sFILE64 @ 216 
#  216 = _Z11load_boardsv _Z11load_boardsv @ 217 
#  217 = _Z11load_mobileP9__sFILE64 _Z11load_mobileP9__sFILE64 @ 218 
#  218 = _Z11load_morphsv _Z11load_morphsv @ 219 
#  219 = _Z11load_planesv _Z11load_planesv @ 220 
#  220 = _Z11load_rangesP9area_dataP9__sFILE64 _Z11load_rangesP9area_dataP9__sFILE64 @ 221 
#  221 = _Z11load_resetsP9area_dataP9__sFILE64 _Z11load_resetsP9area_dataP9__sFILE64 @ 222 
#  222 = _Z11make_corpseP9char_dataS0_ _Z11make_corpseP9char_dataS0_ @ 223 
#  223 = _Z11make_mobileiiPKc _Z11make_mobileiiPKc @ 224 
#  224 = _Z11make_objectiiPKc _Z11make_objectiiPKc @ 225 
#  225 = _Z11make_scrapsP8obj_data _Z11make_scrapsP8obj_data @ 226 
#  226 = _Z11mini_c_timeli _Z11mini_c_timeli @ 227 
#  227 = _Z11mob_act_addP9char_data _Z11mob_act_addP9char_data @ 228 
#  228 = _Z11mprog_sevalPKcS0_S0_P9char_data _Z11mprog_sevalPKcS0_S0_P9char_data @ 229 
#  229 = _Z11mprog_vevaliPciP9char_data _Z11mprog_vevaliPciP9char_data @ 230 
#  230 = _Z11ms_find_objP9char_data _Z11ms_find_objP9char_data @ 231 
#  231 = _Z11name_expandP9char_data _Z11name_expandP9char_data @ 232 
#  232 = _Z11note_attachP9char_data _Z11note_attachP9char_data @ 233 
#  233 = _Z11note_removeP10board_dataP9note_data _Z11note_removeP10board_dataP9note_data @ 234 
#  234 = _Z11number_bitsi _Z11number_bitsi @ 235 
#  235 = _Z11number_doorv _Z11number_doorv @ 236 
#  236 = _Z11obj_act_addP8obj_data _Z11obj_act_addP8obj_data @ 237 
#  237 = _Z11obj_hitrollP8obj_data _Z11obj_hitrollP8obj_data @ 238 
#  238 = _Z11obj_to_charP8obj_dataP9char_data _Z11obj_to_charP8obj_dataP9char_data @ 239 
#  239 = _Z11obj_to_roomP8obj_dataP15room_index_data _Z11obj_to_roomP8obj_dataP15room_index_data @ 240 
#  240 = _Z11process_dnsP15descriptor_data _Z11process_dnsP15descriptor_data @ 241 
#  241 = _Z11race_stringi _Z11race_stringi @ 242 
#  242 = _Z11random_ansis _Z11random_ansis @ 243 
#  243 = _Z11resolve_dnsP15descriptor_datal _Z11resolve_dnsP15descriptor_datal @ 244 
#  244 = _Z11room_affectP15room_index_dataP11affect_datab _Z11room_affectP15room_index_dataP11affect_datab @ 245 
#  245 = _Z11room_is_dndP9char_dataP15room_index_data _Z11room_is_dndP9char_dataP15room_index_data @ 246 
#  246 = _Z11save_mobileP9__sFILE64P9char_data _Z11save_mobileP9__sFILE64P9char_data @ 247 
#  247 = _Z11save_morphsv _Z11save_morphsv @ 248 
#  248 = _Z11save_planesv _Z11save_planesv @ 249 
#  249 = _Z11saves_wandsiP9char_data _Z11saves_wandsiP9char_data @ 250 
#  250 = _Z11set_cur_objP8obj_data _Z11set_cur_objP8obj_data @ 251 
#  251 = _Z11show_colorsP9char_data _Z11show_colorsP9char_data @ 252 
#  252 = _Z11slot_lookupi _Z11slot_lookupi @ 253 
#  253 = _Z11smash_tildePKc _Z11smash_tildePKc @ 254 
#  254 = _Z11smash_tildePc _Z11smash_tildePc @ 255 
#  255 = _Z11smush_tildePc _Z11smush_tildePc @ 256 
#  256 = _Z11spec_lookupPKc _Z11spec_lookupPKc @ 257 
#  257 = _Z11spring_trapP9char_dataP8obj_data _Z11spring_trapP9char_dataP8obj_data @ 258 
#  258 = _Z11start_timerP7timeval _Z11start_timerP7timeval @ 259 
#  259 = _Z11stop_hatingP9char_data _Z11stop_hatingP9char_data @ 260 
#  260 = _Z11stop_idlingP9char_data _Z11stop_idlingP9char_data @ 261 
#  261 = _Z11tele_updatev _Z11tele_updatev @ 262 
#  262 = _Z11time_updatev _Z11time_updatev @ 263 
#  263 = _Z11trv_disposePP8trv_data _Z11trv_disposePP8trv_data @ 264 
#  264 = _Z11trvch_wnextP9trv_world _Z11trvch_wnextP9trv_world @ 265 
#  265 = _Z11trvobj_nextP8trv_data _Z11trvobj_nextP8trv_data @ 266 
#  266 = _Z11unmorph_allP10morph_data _Z11unmorph_allP10morph_data @ 267 
#  267 = _Z11update_arisP9char_data _Z11update_arisP9char_data @ 268 
#  268 = _Z11update_timeP2tm _Z11update_timeP2tm @ 269 
#  269 = _Z11valid_watchPc _Z11valid_watchPc @ 270 
#  270 = _Z11wipe_resetsP15room_index_data _Z11wipe_resetsP15room_index_data @ 271 
#  271 = _Z11write_boardP10board_data _Z11write_boardP10board_data @ 272 
#  272 = _Z12DecreaseTempP11WeatherCelli _Z12DecreaseTempP11WeatherCelli @ 273 
#  273 = _Z12IncreaseTempP11WeatherCelli _Z12IncreaseTempP11WeatherCelli @ 274 
#  274 = _Z12SHA256_FinalPhP13SHA256Context _Z12SHA256_FinalPhP13SHA256Context @ 275 
#  275 = _Z12add_followerP9char_dataS0_ _Z12add_followerP9char_dataS0_ @ 276 
#  276 = _Z12add_loginmsgPcsS_ _Z12add_loginmsgPcsS_ @ 277 
#  277 = _Z12adjust_favorP9char_dataii _Z12adjust_favorP9char_dataii @ 278 
#  278 = _Z12affect_stripP9char_datai _Z12affect_stripP9char_datai @ 279 
#  279 = _Z12appraise_allP9char_dataS0_PKc _Z12appraise_allP9char_dataS0_PKc @ 280 
#  280 = _Z12can_drop_objP9char_dataP8obj_data _Z12can_drop_objP9char_dataP8obj_data @ 281 
#  281 = _Z12caught_alarmi _Z12caught_alarmi @ 282 
#  282 = _Z12char_to_roomP9char_dataP15room_index_data _Z12char_to_roomP9char_dataP15room_index_data @ 283 
#  283 = _Z12check_expireP8ban_data _Z12check_expireP8ban_data @ 284 
#  284 = _Z12check_killerP9char_dataS0_ _Z12check_killerP9char_dataS0_ @ 285 
#  285 = _Z12check_planesP10plane_data _Z12check_planesP10plane_data @ 286 
#  286 = _Z12check_socialP9char_dataPKcS2_ _Z12check_socialP9char_dataPKcS2_ @ 287 
#  287 = _Z12check_switchP9char_datab _Z12check_switchP9char_datab @ 288 
#  288 = _Z12check_tumbleP9char_dataS0_ _Z12check_tumbleP9char_dataS0_ @ 289 
#  289 = _Z12class_stringi _Z12class_stringi @ 290 
#  290 = _Z12clean_resetsP15room_index_data _Z12clean_resetsP15room_index_data @ 291 
#  291 = _Z12clear_vroomsv _Z12clear_vroomsv @ 292 
#  292 = _Z12clone_objectP8obj_data _Z12clone_objectP8obj_data @ 293 
#  293 = _Z12close_socketP15descriptor_datab _Z12close_socketP15descriptor_datab @ 294 
#  294 = _Z12color_strlenPKc _Z12color_strlenPKc @ 295 
#  295 = _Z12create_moneyi _Z12create_moneyi @ 296 
#  296 = _Z12create_whogrP9char_data _Z12create_whogrP9char_data @ 297 
#  297 = _Z12delete_resetP10reset_data _Z12delete_resetP10reset_data @ 298 
#  298 = _Z12delete_vdataP13variable_data _Z12delete_vdataP13variable_data @ 299 
#  299 = _Z12die_followerP9char_data _Z12die_followerP9char_data @ 300 
#  300 = _Z12display_newsP9char_dataP9news_dataP9news_type _Z12display_newsP9char_dataP9news_dataP9news_type @ 301 
#  301 = _Z12drunk_speechPKcP9char_data _Z12drunk_speechPKcP9char_data @ 302 
#  302 = _Z12echo_to_roomsP15room_index_dataPKc _Z12echo_to_roomsP15room_index_dataPKc @ 303 
#  303 = _Z12ext_has_bitsP18extended_bitvectorS0_ _Z12ext_has_bitsP18extended_bitvectorS0_ @ 304 
#  304 = _Z12ext_is_emptyP18extended_bitvector _Z12ext_is_emptyP18extended_bitvector @ 305 
#  305 = _Z12ext_set_bitsP18extended_bitvectorS0_ _Z12ext_set_bitsP18extended_bitvectorS0_ @ 306 
#  306 = _Z12extract_charP9char_datab _Z12extract_charP9char_datab @ 307 
#  307 = _Z12extract_exitP15room_index_dataP9exit_data _Z12extract_exitP15room_index_dataP9exit_data @ 308 
#  308 = _Z12find_abilityP9char_dataPKcb _Z12find_abilityP9char_dataPKcb @ 309 
#  309 = _Z12find_commandPc _Z12find_commandPc @ 310 
#  310 = _Z12find_old_ageP9char_data _Z12find_old_ageP9char_data @ 311 
#  311 = _Z12flush_bufferP15descriptor_datab _Z12flush_bufferP15descriptor_datab @ 312 
#  312 = _Z12fread_letterP9__sFILE64 _Z12fread_letterP9__sFILE64 @ 313 
#  313 = _Z12fread_liquidP9__sFILE64 _Z12fread_liquidP9__sFILE64 @ 314 
#  314 = _Z12fread_mobileP9__sFILE64 _Z12fread_mobileP9__sFILE64 @ 315 
#  315 = _Z12fread_numberP9__sFILE64 _Z12fread_numberP9__sFILE64 @ 316 
#  316 = _Z12fread_socialP9__sFILE64 _Z12fread_socialP9__sFILE64 @ 317 
#  317 = _Z12fread_stringP9__sFILE64 _Z12fread_stringP9__sFILE64 @ 318 
#  318 = _Z12fread_to_eolP9__sFILE64 _Z12fread_to_eolP9__sFILE64 @ 319 
#  319 = _Z12free_commandP8cmd_type _Z12free_commandP8cmd_type @ 320 
#  320 = _Z12free_deitiesv _Z12free_deitiesv @ 321 
#  321 = _Z12free_holidayP12holiday_data _Z12free_holidayP12holiday_data @ 322 
#  322 = _Z12free_reserveP12reserve_data _Z12free_reserveP12reserve_data @ 323 
#  323 = _Z12free_socialsv _Z12free_socialsv @ 324 
#  324 = _Z12free_tonguesv _Z12free_tonguesv @ 325 
#  325 = _Z12fwrite_langsv _Z12fwrite_langsv @ 326 
#  326 = _Z12fwrite_morphP9__sFILE64P10morph_data _Z12fwrite_morphP9__sFILE64P10morph_data @ 327 
#  327 = _Z12fwrite_skillP9__sFILE64P10skill_type _Z12fwrite_skillP9__sFILE64P10skill_type @ 328 
#  328 = _Z12get_area_objP14obj_index_data _Z12get_area_objP14obj_index_data @ 329 
#  329 = _Z12get_areaflagPKc _Z12get_areaflagPKc @ 330 
#  330 = _Z12get_curr_chaP9char_data _Z12get_curr_chaP9char_data @ 331 
#  331 = _Z12get_curr_conP9char_data _Z12get_curr_conP9char_data @ 332 
#  332 = _Z12get_curr_dexP9char_data _Z12get_curr_dexP9char_data @ 333 
#  333 = _Z12get_curr_intP9char_data _Z12get_curr_intP9char_data @ 334 
#  334 = _Z12get_curr_lckP9char_data _Z12get_curr_lckP9char_data @ 335 
#  335 = _Z12get_curr_strP9char_data _Z12get_curr_strP9char_data @ 336 
#  336 = _Z12get_curr_wisP9char_data _Z12get_curr_wisP9char_data @ 337 
#  337 = _Z12get_exit_diriPiS_ii _Z12get_exit_diriPiS_ii @ 338 
#  338 = _Z12get_exit_numP15room_index_datas _Z12get_exit_numP15room_index_datas @ 339 
#  339 = _Z12get_exp_baseP9char_data _Z12get_exp_baseP9char_data @ 340 
#  340 = _Z12get_langflagPKc _Z12get_langflagPKc @ 341 
#  341 = _Z12get_liq_vnumi _Z12get_liq_vnumi @ 342 
#  342 = _Z12get_npc_racePKc _Z12get_npc_racePKc @ 343 
#  343 = _Z12get_obj_hereP9char_dataPKc _Z12get_obj_hereP9char_dataPKc @ 344 
#  344 = _Z12get_obj_listP9char_dataPcP8obj_data _Z12get_obj_listP9char_dataPcP8obj_data @ 345 
#  345 = _Z12get_obj_roomP14obj_index_dataP15room_index_data _Z12get_obj_roomP14obj_index_dataP15room_index_data @ 346 
#  346 = _Z12get_obj_typeP14obj_index_data _Z12get_obj_typeP14obj_index_data @ 347 
#  347 = _Z12get_obj_vnumP9char_datai _Z12get_obj_vnumP9char_datai @ 348 
#  348 = _Z12get_obj_wearP9char_dataPKc _Z12get_obj_wearP9char_dataPKc @ 349 
#  349 = _Z12get_partflagPKc _Z12get_partflagPKc @ 350 
#  350 = _Z12get_pc_classPKc _Z12get_pc_classPKc @ 351 
#  351 = _Z12get_pulltypePKc _Z12get_pulltypePKc @ 352 
#  352 = _Z12get_saveflagPKc _Z12get_saveflagPKc @ 353 
#  353 = _Z12get_timerptrP9char_datas _Z12get_timerptrP9char_datas @ 354 
#  354 = _Z12get_trapflagPKc _Z12get_trapflagPKc @ 355 
#  355 = _Z12get_trigflagPKc _Z12get_trigflagPKc @ 356 
#  356 = _Z12group_objectP8obj_dataS0_ _Z12group_objectP8obj_dataS0_ @ 357 
#  357 = _Z12in_dns_cachePc _Z12in_dns_cachePc @ 358 
#  358 = _Z12indent_whogrP9char_dataP7whogr_si _Z12indent_whogrP9char_dataP7whogr_si @ 359 
#  359 = _Z12isGustyWindEi _Z12isGustyWindEi @ 360 
#  360 = _Z12isGustyWindNi _Z12isGustyWindNi @ 361 
#  361 = _Z12isGustyWindSi _Z12isGustyWindSi @ 362 
#  362 = _Z12isGustyWindWi _Z12isGustyWindWi @ 363 
#  363 = _Z12isReallyColdi _Z12isReallyColdi @ 364 
#  364 = _Z12isWindyWindEi _Z12isWindyWindEi @ 365 
#  365 = _Z12isWindyWindNi _Z12isWindyWindNi @ 366 
#  366 = _Z12isWindyWindSi _Z12isWindyWindSi @ 367 
#  367 = _Z12isWindyWindWi _Z12isWindyWindWi @ 368 
#  368 = _Z12is_valid_tagPKc _Z12is_valid_tagPKc @ 369 
#  369 = _Z12load_banlistv _Z12load_banlistv @ 370 
#  370 = _Z12load_classesv _Z12load_classesv @ 371 
#  371 = _Z12load_climateP9area_dataP9__sFILE64 _Z12load_climateP9area_dataP9__sFILE64 @ 372 
#  372 = _Z12load_corpsesv _Z12load_corpsesv @ 373 
#  373 = _Z12load_creditsP9area_dataP9__sFILE64 _Z12load_creditsP9area_dataP9__sFILE64 @ 374 
#  374 = _Z12load_economyP9area_dataP9__sFILE64 _Z12load_economyP9area_dataP9__sFILE64 @ 375 
#  375 = _Z12load_liquidsv _Z12load_liquidsv @ 376 
#  376 = _Z12load_mobilesP9area_dataP9__sFILE64 _Z12load_mobilesP9area_dataP9__sFILE64 @ 377 
#  377 = _Z12load_objectsP9area_dataP9__sFILE64 _Z12load_objectsP9area_dataP9__sFILE64 @ 378 
#  378 = _Z12load_repairsP9__sFILE64 _Z12load_repairsP9__sFILE64 @ 379 
#  379 = _Z12load_socialsv _Z12load_socialsv @ 380 
#  380 = _Z12load_tonguesv _Z12load_tonguesv @ 381 
#  381 = _Z12load_versionP9area_dataP9__sFILE64 _Z12load_versionP9area_dataP9__sFILE64 @ 382 
#  382 = _Z12make_wizlistv _Z12make_wizlistv @ 383 
#  383 = _Z12map_to_roomsP9char_dataP14map_index_data _Z12map_to_roomsP9char_dataP14map_index_data @ 384 
#  384 = _Z12modify_skillP9char_dataiib _Z12modify_skillP9char_dataiib @ 385 
#  385 = _Z12mprog_driverPKcP9char_dataS2_P8obj_dataPKvb _Z12mprog_driverPKcP9char_dataS2_P8obj_dataPKvb @ 386 
#  386 = _Z12number_fuzzyi _Z12number_fuzzyi @ 387 
#  387 = _Z12number_rangeii _Z12number_rangeii @ 388 
#  388 = _Z12obj_from_objP8obj_data _Z12obj_from_objP8obj_data @ 389 
#  389 = _Z12off_shld_lvlP9char_dataS0_ _Z12off_shld_lvlP9char_dataS0_ @ 390 
#  390 = _Z12one_argumentPKcPc _Z12one_argumentPKcPc @ 391 
#  391 = _Z12one_argumentPcS_ _Z12one_argumentPcS_ @ 392 
#  392 = _Z12pager_outputP15descriptor_data _Z12pager_outputP15descriptor_data @ 393 
#  393 = _Z12pager_printfP9char_dataPKcz _Z12pager_printfP9char_dataPKcz @ 394 
#  394 = _Z12plane_lookupPKc _Z12plane_lookupPKc @ 395 
#  395 = _Z12player_countv _Z12player_countv @ 396 
#  396 = _Z12read_projectP9__sFILE64 _Z12read_projectP9__sFILE64 @ 397 
#  397 = _Z12reboot_checkl _Z12reboot_checkl @ 398 
#  398 = _Z12remove_timerP9char_datas _Z12remove_timerP9char_datas @ 399 
#  399 = _Z12reset_colorsP9char_data _Z12reset_colorsP9char_data @ 400 
#  400 = _Z12room_act_addP15room_index_data _Z12room_act_addP15room_index_data @ 401 
#  401 = _Z12room_enqueueP15room_index_data _Z12room_enqueueP15room_index_data @ 402 
#  402 = _Z12room_is_darkP15room_index_data _Z12room_is_darkP15room_index_data @ 403 
#  403 = _Z12save_banlistv _Z12save_banlistv @ 404 
#  404 = _Z12save_classesv _Z12save_classesv @ 405 
#  405 = _Z12save_councilP12council_data _Z12save_councilP12council_data @ 406 
#  406 = _Z12save_liquidsv _Z12save_liquidsv @ 407 
#  407 = _Z12save_socialsv _Z12save_socialsv @ 408 
#  408 = _Z12save_sysdata11system_data _Z12save_sysdata11system_data @ 409 
#  409 = _Z12saves_breathiP9char_data _Z12saves_breathiP9char_data @ 410 
#  410 = _Z12send_to_charPKcP9char_data _Z12send_to_charPKcP9char_data @ 411 
#  411 = _Z12separate_objP8obj_data _Z12separate_objP8obj_data @ 412 
#  412 = _Z12set_cur_charP9char_data _Z12set_cur_charP9char_data @ 413 
#  413 = _Z12set_fightingP9char_dataS0_ _Z12set_fightingP9char_dataS0_ @ 414 
#  414 = _Z12set_supermobP8obj_data _Z12set_supermobP8obj_data @ 415 
#  415 = _Z12sha256_cryptPKc _Z12sha256_cryptPKc @ 416 
#  416 = _Z12shutdown_mudPKc _Z12shutdown_mudPKc @ 417 
#  417 = _Z12skill_lookupPKc _Z12skill_lookupPKc @ 418 
#  418 = _Z12spell_affectiiP9char_dataPv _Z12spell_affectiiP9char_dataPv @ 419 
#  419 = _Z12spell_attackiiP9char_dataPv _Z12spell_attackiiP9char_dataPv @ 420 
#  420 = _Z12sprint_resetP10reset_dataPs _Z12sprint_resetP10reset_dataPs @ 421 
#  421 = _Z12start_hatingP9char_dataS0_ _Z12start_hatingP9char_dataS0_ @ 422 
#  422 = _Z12start_springv _Z12start_springv @ 423 
#  423 = _Z12start_summerv _Z12start_summerv @ 424 
#  424 = _Z12start_winterv _Z12start_winterv @ 425 
#  425 = _Z12stop_editingP9char_data _Z12stop_editingP9char_data @ 426 
#  426 = _Z12stop_fearingP9char_data _Z12stop_fearingP9char_data @ 427 
#  427 = _Z12stop_huntingP9char_data _Z12stop_huntingP9char_data @ 428 
#  428 = _Z12talk_auctionPc _Z12talk_auctionPc @ 429 
#  429 = _Z12talk_channelP9char_dataPKciS2_ _Z12talk_channelP9char_dataPKciS2_ @ 430 
#  430 = _Z12times_killedP9char_dataS0_ _Z12times_killedP9char_dataS0_ @ 431 
#  431 = _Z12trvch_createP9char_data8trv_type _Z12trvch_createP9char_data8trv_type @ 432 
#  432 = _Z12trvobj_wnextP9trv_world _Z12trvobj_wnextP9trv_world @ 433 
#  433 = _Z12tzone_lookupPKc _Z12tzone_lookupPKc @ 434 
#  434 = _Z12unequip_charP9char_dataP8obj_data _Z12unequip_charP9char_dataP8obj_data @ 435 
#  435 = _Z12warn_in_progP9char_dataiiPKciP13mob_prog_dataP14renumber_areas _Z12warn_in_progP9char_dataiiPKciP13mob_prog_dataP14renumber_areas @ 436 
#  436 = _Z12who_fightingP9char_data _Z12who_fightingP9char_data @ 437 
#  437 = _Z13DecreaseWindXP11WeatherCelli _Z13DecreaseWindXP11WeatherCelli @ 438 
#  438 = _Z13DecreaseWindYP11WeatherCelli _Z13DecreaseWindYP11WeatherCelli @ 439 
#  439 = _Z13IncreaseWindXP11WeatherCelli _Z13IncreaseWindXP11WeatherCelli @ 440 
#  440 = _Z13IncreaseWindYP11WeatherCelli _Z13IncreaseWindYP11WeatherCelli @ 441 
#  441 = _Z13SHA256_UpdateP13SHA256ContextPKhj _Z13SHA256_UpdateP13SHA256ContextPKhj @ 442 
#  442 = _Z13UpdateWeatherv _Z13UpdateWeatherv @ 443 
#  443 = _Z13add_obj_resetP15room_index_datacP8obj_dataii _Z13add_obj_resetP15room_index_datacP8obj_dataii @ 444 
#  444 = _Z13advance_levelP9char_data _Z13advance_levelP9char_data @ 445 
#  445 = _Z13affect_modifyP9char_dataP11affect_datab _Z13affect_modifyP9char_dataP11affect_datab @ 446 
#  446 = _Z13affect_removeP9char_dataP11affect_data _Z13affect_removeP9char_dataP11affect_data @ 447 
#  447 = _Z13align_computeP9char_dataS0_ _Z13align_computeP9char_dataS0_ @ 448 
#  448 = _Z13boost_economyP9area_datai _Z13boost_economyP9area_datai @ 449 
#  449 = _Z13calculate_ageP9char_data _Z13calculate_ageP9char_data @ 450 
#  450 = _Z13can_use_skillP9char_dataii _Z13can_use_skillP9char_dataii @ 451 
#  451 = _Z13chance_attribP9char_datass _Z13chance_attribP9char_datass @ 452 
#  452 = _Z13check_abilityP9char_dataPcS1_ _Z13check_abilityP9char_dataPcS1_ @ 453 
#  453 = _Z13check_playingP15descriptor_dataPKcb _Z13check_playingP15descriptor_dataPKcb @ 454 
#  454 = _Z13circle_followP9char_dataS0_ _Z13circle_followP9char_dataS0_ @ 455 
#  455 = _Z13compressStartP15descriptor_data _Z13compressStartP15descriptor_data @ 456 
#  456 = _Z13create_mobileP14mob_index_data _Z13create_mobileP14mob_index_data @ 457 
#  457 = _Z13create_objectP14obj_index_datai _Z13create_objectP14obj_index_datai @ 458 
#  458 = _Z13de_equip_charP9char_data _Z13de_equip_charP9char_data @ 459 
#  459 = _Z13decorate_roomP15room_index_data _Z13decorate_roomP15room_index_data @ 460 
#  460 = _Z13do_morph_charP9char_dataP10morph_data _Z13do_morph_charP9char_dataP10morph_data @ 461 
#  461 = _Z13draw_room_mapP9char_dataPKc _Z13draw_room_mapP9char_dataPKc @ 462 
#  462 = _Z13drunk_randomsP9char_data _Z13drunk_randomsP9char_data @ 463 
#  463 = _Z13ext_same_bitsP18extended_bitvectorS0_ _Z13ext_same_bitsP18extended_bitvectorS0_ @ 464 
#  464 = _Z13extract_timerP9char_dataP10timer_data _Z13extract_timerP9char_dataP10timer_data @ 465 
#  465 = _Z13find_locationP9char_dataPKc _Z13find_locationP9char_dataPKc @ 466 
#  466 = _Z13fread_commandP9__sFILE64 _Z13fread_commandP9__sFILE64 @ 467 
#  467 = _Z13fread_commentP9char_dataP9__sFILE64 _Z13fread_commentP9char_dataP9__sFILE64 @ 468 
#  468 = _Z13fread_councilP12council_dataP9__sFILE64 _Z13fread_councilP12council_dataP9__sFILE64 @ 469 
#  469 = _Z13fread_mixtureP9__sFILE64 _Z13fread_mixtureP9__sFILE64 @ 470 
#  470 = _Z13fread_sysdataP11system_dataP9__sFILE64 _Z13fread_sysdataP11system_dataP9__sFILE64 @ 471 
#  471 = _Z13free_commandsv _Z13free_commandsv @ 472 
#  472 = _Z13free_councilsv _Z13free_councilsv @ 473 
#  473 = _Z13free_holidaysv _Z13free_holidaysv @ 474 
#  474 = _Z13free_one_clanP9clan_data _Z13free_one_clanP9clan_data @ 475 
#  475 = _Z13free_projectsv _Z13free_projectsv @ 476 
#  476 = _Z13free_specfunsv _Z13free_specfunsv @ 477 
#  477 = _Z13fwrite_mobileP9__sFILE64P9char_data _Z13fwrite_mobileP9__sFILE64P9char_data @ 478 
#  478 = _Z13generate_exitP15room_index_dataPP9exit_data _Z13generate_exitP15room_index_dataPP9exit_data @ 479 
#  479 = _Z13getCloudCoverP11WeatherCell _Z13getCloudCoverP11WeatherCell @ 480 
#  480 = _Z13get_char_roomP9char_dataPKc _Z13get_char_roomP9char_dataPKc @ 481 
#  481 = _Z13get_ed_numberP8obj_datai _Z13get_ed_numberP8obj_datai @ 482 
#  482 = _Z13get_exp_worthP9char_data _Z13get_exp_worthP9char_data @ 483 
#  483 = _Z13get_map_indexi _Z13get_map_indexi @ 484 
#  484 = _Z13get_mob_indexi _Z13get_mob_indexi @ 485 
#  485 = _Z13get_npc_classPKc _Z13get_npc_classPKc @ 486 
#  486 = _Z13get_obj_carryP9char_dataPKc _Z13get_obj_carryP9char_dataPKc @ 487 
#  487 = _Z13get_obj_indexi _Z13get_obj_indexi @ 488 
#  488 = _Z13get_obj_worldP9char_dataPKc _Z13get_obj_worldP9char_dataPKc @ 489 
#  489 = _Z13get_skilltypei _Z13get_skilltypei @ 490 
#  490 = _Z13in_hard_rangeP9char_dataP9area_data _Z13in_hard_rangeP9char_dataP9area_data @ 491 
#  491 = _Z13in_hash_tablePKc _Z13in_hash_tablePKc @ 492 
#  492 = _Z13in_soft_rangeP9char_dataP9area_data _Z13in_soft_rangeP9char_dataP9area_data @ 493 
#  493 = _Z13init_supermobv _Z13init_supermobv @ 494 
#  494 = _Z13isBreezyWindEi _Z13isBreezyWindEi @ 495 
#  495 = _Z13isBreezyWindNi _Z13isBreezyWindNi @ 496 
#  496 = _Z13isBreezyWindSi _Z13isBreezyWindSi @ 497 
#  497 = _Z13isBreezyWindWi _Z13isBreezyWindWi @ 498 
#  498 = _Z13isLowPressurei _Z13isLowPressurei @ 499 
#  499 = _Z13is_legal_killP9char_dataS0_ _Z13is_legal_killP9char_dataS0_ @ 500 
#  500 = _Z13is_same_groupP9char_dataS0_ _Z13is_same_groupP9char_dataS0_ @ 501 
#  501 = _Z13load_char_objP15descriptor_dataPcbb _Z13load_char_objP15descriptor_dataPcbb @ 502 
#  502 = _Z13load_commandsv _Z13load_commandsv @ 503 
#  503 = _Z13load_councilsv _Z13load_councilsv @ 504 
#  504 = _Z13load_holidaysv _Z13load_holidaysv @ 505 
#  505 = _Z13load_imm_hostv _Z13load_imm_hostv @ 506 
#  506 = _Z13load_loginmsgv _Z13load_loginmsgv @ 507 
#  507 = _Z13load_mixturesv _Z13load_mixturesv @ 508 
#  508 = _Z13load_neighborP9area_dataP9__sFILE64 _Z13load_neighborP9area_dataP9__sFILE64 @ 509 
#  509 = _Z13load_projectsv _Z13load_projectsv @ 510 
#  510 = _Z13load_reservedv _Z13load_reservedv @ 511 
#  511 = _Z13load_resetmsgP9area_dataP9__sFILE64 _Z13load_resetmsgP9area_dataP9__sFILE64 @ 512 
#  512 = _Z13load_specfunsv _Z13load_specfunsv @ 513 
#  513 = _Z13load_specialsP9__sFILE64 _Z13load_specialsP9__sFILE64 @ 514 
#  514 = _Z13load_timedatav _Z13load_timedatav @ 515 
#  515 = _Z13lower_economyP9area_datai _Z13lower_economyP9area_datai @ 516 
#  516 = _Z13make_variableciPc _Z13make_variableciPc @ 517 
#  517 = _Z13mobile_updatev _Z13mobile_updatev @ 518 
#  518 = _Z13news_cmd_hookP9char_dataPcS1_ _Z13news_cmd_hookP9char_dataPcS1_ @ 519 
#  519 = _Z13nifty_is_namePKcS0_ _Z13nifty_is_namePKcS0_ @ 520 
#  520 = _Z13obj_extractedP8obj_data _Z13obj_extractedP8obj_data @ 521 
#  521 = _Z13obj_from_charP8obj_data _Z13obj_from_charP8obj_data @ 522 
#  522 = _Z13obj_from_roomP8obj_data _Z13obj_from_roomP8obj_data @ 523 
#  523 = _Z13old_fold_areaP9area_dataPcb _Z13old_fold_areaP9area_dataPcb @ 524 
#  524 = _Z13one_argument2PKcPc _Z13one_argument2PKcPc @ 525 
#  525 = _Z13print_compassP9char_data _Z13print_compassP9char_data @ 526 
#  526 = _Z13ranged_attackP9char_dataPKcP8obj_dataS4_ss _Z13ranged_attackP9char_dataPKcP8obj_dataS4_ss @ 527 
#  527 = _Z13re_equip_charP9char_data _Z13re_equip_charP9char_data @ 528 
#  528 = _Z13read_from_dnsiPc _Z13read_from_dnsiPc @ 529 
#  529 = _Z13read_obj_filePcS_ _Z13read_obj_filePcS_ @ 530 
#  530 = _Z13reformat_descPc _Z13reformat_descPc @ 531 
#  531 = _Z13remove_portalP8obj_data _Z13remove_portalP8obj_data @ 532 
#  532 = _Z13remove_rosterP9clan_dataPKc _Z13remove_rosterP9clan_dataPKc @ 533 
#  533 = _Z13renumber_areaP9char_dataP9area_dataP14renumber_areasbb _Z13renumber_areaP9char_dataP9area_dataP14renumber_areasbb @ 534 
#  534 = _Z13renumber_newsv _Z13renumber_newsv @ 535 
#  535 = _Z13rset_supermobP15room_index_data _Z13rset_supermobP15room_index_data @ 536 
#  536 = _Z13save_char_objP9char_data _Z13save_char_objP9char_data @ 537 
#  537 = _Z13save_commandsv _Z13save_commandsv @ 538 
#  538 = _Z13save_holidaysv _Z13save_holidaysv @ 539 
#  539 = _Z13save_loginmsgv _Z13save_loginmsgv @ 540 
#  540 = _Z13save_mixturesv _Z13save_mixturesv @ 541 
#  541 = _Z13save_reservedv _Z13save_reservedv @ 542 
#  542 = _Z13save_timedatav _Z13save_timedatav @ 543 
#  543 = _Z13season_updatev _Z13season_updatev @ 544 
#  544 = _Z13send_to_pagerPKcP9char_data _Z13send_to_pagerPKcP9char_data @ 545 
#  545 = _Z13simple_damageP9char_dataS0_ii _Z13simple_damageP9char_dataS0_ii @ 546 
#  546 = _Z13sort_reservedP12reserve_data _Z13sort_reservedP12reserve_data @ 547 
#  547 = _Z13spell_obj_inviiP9char_dataPv _Z13spell_obj_inviiP9char_dataPv @ 548 
#  548 = _Z13start_editingP9char_dataPKc _Z13start_editingP9char_dataPKc @ 549 
#  549 = _Z13start_fearingP9char_dataS0_ _Z13start_fearingP9char_dataS0_ @ 550 
#  550 = _Z13start_huntingP9char_dataS0_ _Z13start_huntingP9char_dataS0_ @ 551 
#  551 = _Z13stop_fightingP9char_datab _Z13stop_fightingP9char_datab @ 552 
#  552 = _Z13stop_followerP9char_data _Z13stop_followerP9char_data @ 553 
#  553 = _Z13transfer_charP9char_dataS0_P15room_index_data _Z13transfer_charP9char_dataS0_P15room_index_data @ 554 
#  554 = _Z13trvobj_createP8obj_data8trv_type _Z13trvobj_createP8obj_data8trv_type @ 555 
#  555 = _Z13unlink_socialP11social_type _Z13unlink_socialP11social_type @ 556 
#  556 = _Z13update_rosterP9char_data _Z13update_rosterP9char_data @ 557 
#  557 = _Z13update_timersv _Z13update_timersv @ 558 
#  558 = _Z13update_userecP7timevalP8timerset _Z13update_userecP7timevalP8timerset @ 559 
#  559 = _Z13write_corpsesP9char_dataPKcP8obj_data _Z13write_corpsesP9char_dataPKcP8obj_data @ 560 
#  560 = _Z14DecreaseEnergyP11WeatherCelli _Z14DecreaseEnergyP11WeatherCelli @ 561 
#  561 = _Z14DecreasePrecipP11WeatherCelli _Z14DecreasePrecipP11WeatherCelli @ 562 
#  562 = _Z14DelOExtraProtoP14obj_index_dataPKc _Z14DelOExtraProtoP14obj_index_dataPKc @ 563 
#  563 = _Z14IncreaseEnergyP11WeatherCelli _Z14IncreaseEnergyP11WeatherCelli @ 564 
#  564 = _Z14IncreasePrecipP11WeatherCelli _Z14IncreasePrecipP11WeatherCelli @ 565 
#  565 = _Z14RandomizeCellsv _Z14RandomizeCellsv @ 566 
#  566 = _Z14SetOExtraProtoP14obj_index_dataPKc _Z14SetOExtraProtoP14obj_index_dataPKc @ 567 
#  567 = _Z14WeatherMessagePKcii _Z14WeatherMessagePKcii @ 568 
#  568 = _Z14add_to_wizlistPci _Z14add_to_wizlistPci @ 569 
#  569 = _Z14affect_to_charP9char_dataP11affect_data _Z14affect_to_charP9char_dataP11affect_data @ 570 
#  570 = _Z14append_to_filePKcS0_ _Z14append_to_filePKcS0_ @ 571 
#  571 = _Z14auction_updatev _Z14auction_updatev @ 572 
#  572 = _Z14can_learn_langP9char_datai _Z14can_learn_langP9char_datai @ 573 
#  573 = _Z14can_take_protoP9char_data _Z14can_take_protoP9char_data @ 574 
#  574 = _Z14char_from_roomP9char_data _Z14char_from_roomP9char_data @ 575 
#  575 = _Z14check_attackerP9char_dataS0_ _Z14check_attackerP9char_dataS0_ @ 576 
#  576 = _Z14check_bad_desci _Z14check_bad_desci @ 577 
#  577 = _Z14check_for_trapP9char_dataP8obj_datai _Z14check_for_trapP9char_dataP8obj_datai @ 578 
#  578 = _Z14check_loginmsgP9char_data _Z14check_loginmsgP9char_data @ 579 
#  579 = _Z14check_switchesb _Z14check_switchesb @ 580 
#  580 = _Z14cleanup_memoryv _Z14cleanup_memoryv @ 581 
#  581 = _Z14comment_removeP9char_dataP9note_data _Z14comment_removeP9char_dataP9note_data @ 582 
#  582 = _Z14count_obj_listP14obj_index_dataP8obj_data _Z14count_obj_listP14obj_index_dataP8obj_data @ 583 
#  583 = _Z14default_promptP9char_data _Z14default_promptP9char_data @ 584 
#  584 = _Z14delete_projectP12project_data _Z14delete_projectP12project_data @ 585 
#  585 = _Z14dispel_castingP11affect_dataP9char_dataS2_ib _Z14dispel_castingP11affect_dataP9char_dataS2_ib @ 586 
#  586 = _Z14display_promptP15descriptor_data _Z14display_promptP15descriptor_data @ 587 
#  587 = _Z14displaymixtureP9char_dataP12mixture_list _Z14displaymixtureP9char_dataP12mixture_list @ 588 
#  588 = _Z14ext_clear_bitsP18extended_bitvector _Z14ext_clear_bitsP18extended_bitvector @ 589 
#  589 = _Z14extra_bit_nameP18extended_bitvector _Z14extra_bit_nameP18extended_bitvector @ 590 
#  590 = _Z14failed_castingP10skill_typeP9char_dataS2_P8obj_data _Z14failed_castingP10skill_typeP9char_dataS2_P8obj_data @ 591 
#  591 = _Z14fix_area_exitsP9area_data _Z14fix_area_exitsP9area_data @ 592 
#  592 = _Z14fread_imm_hostP9__sFILE64P13immortal_host _Z14fread_imm_hostP9__sFILE64P13immortal_host @ 593 
#  593 = _Z14fread_loginmsgP9__sFILE64 _Z14fread_loginmsgP9__sFILE64 @ 594 
#  594 = _Z14fread_timedataP9__sFILE64 _Z14fread_timedataP9__sFILE64 @ 595 
#  595 = _Z14fread_variableP9char_dataP9__sFILE64 _Z14fread_variableP9char_dataP9__sFILE64 @ 596 
#  596 = _Z14free_mssp_infov _Z14free_mssp_infov @ 597 
#  597 = _Z14free_teleportsv _Z14free_teleportsv @ 598 
#  598 = _Z14free_watchlistv _Z14free_watchlistv @ 599 
#  599 = _Z14gain_conditionP9char_dataii _Z14gain_conditionP9char_dataii @ 600 
#  600 = _Z14getWeatherCellP9area_data _Z14getWeatherCellP9area_data @ 601 
#  601 = _Z14get_attackflagPKc _Z14get_attackflagPKc @ 602 
#  602 = _Z14get_char_worldP9char_dataPKc _Z14get_char_worldP9char_dataPKc @ 603 
#  603 = _Z14get_hemispherePc _Z14get_hemispherePc @ 604 
#  604 = _Z14get_morph_vnumi _Z14get_morph_vnumi @ 605 
#  605 = _Z14get_obj_numberP8obj_data _Z14get_obj_numberP8obj_data @ 606 
#  606 = _Z14get_obj_weightP8obj_data _Z14get_obj_weightP8obj_data @ 607 
#  607 = _Z14get_repaircostP9char_dataP8obj_data _Z14get_repaircostP9char_dataP8obj_data @ 608 
#  608 = _Z14get_room_indexi _Z14get_room_indexi @ 609 
#  609 = _Z14hallucinationsP9char_data _Z14hallucinationsP9char_data @ 610 
#  610 = _Z14immune_castingP10skill_typeP9char_dataS2_P8obj_data _Z14immune_castingP10skill_typeP9char_dataS2_P8obj_data @ 611 
#  611 = _Z14isHighPressurei _Z14isHighPressurei @ 612 
#  612 = _Z14isMinorlyHumidi _Z14isMinorlyHumidi @ 613 
#  613 = _Z14isPartlyCloudyi _Z14isPartlyCloudyi @ 614 
#  614 = _Z14is_name_prefixPKcPc _Z14is_name_prefixPKcPc @ 615 
#  615 = _Z14item_type_nameP8obj_data _Z14item_type_nameP8obj_data @ 616 
#  616 = _Z14knows_languageP9char_dataiS0_ _Z14knows_languageP9char_dataiS0_ @ 617 
#  617 = _Z14liqobj_can_mixP8obj_dataS0_ _Z14liqobj_can_mixP8obj_dataS0_ @ 618 
#  618 = _Z14load_area_fileP9area_dataPKc _Z14load_area_fileP9area_dataPKc @ 619 
#  619 = _Z14load_buildlistv _Z14load_buildlistv @ 620 
#  620 = _Z14load_clan_filePKc _Z14load_clan_filePKc @ 621 
#  621 = _Z14load_mssp_datav _Z14load_mssp_datav @ 622 
#  622 = _Z14load_obj_filesv _Z14load_obj_filesv @ 623 
#  623 = _Z14load_race_filePKc _Z14load_race_filePKc @ 624 
#  624 = _Z14load_watchlistv _Z14load_watchlistv @ 625 
#  625 = _Z14locate_targetsP9char_dataPciPS0_PP8obj_data _Z14locate_targetsP9char_dataPciPS0_PP8obj_data @ 626 
#  626 = _Z14magic_bit_namei _Z14magic_bit_namei @ 627 
#  627 = _Z14morph_defaultsP10morph_data _Z14morph_defaultsP10morph_data @ 628 
#  628 = _Z14mpsleep_updatev _Z14mpsleep_updatev @ 629 
#  629 = _Z14nanny_get_nameP15descriptor_dataPc _Z14nanny_get_nameP15descriptor_dataPc @ 630 
#  630 = _Z14new_descriptori _Z14new_descriptori @ 631 
#  631 = _Z14number_percentv _Z14number_percentv @ 632 
#  632 = _Z14obj_act_updatev _Z14obj_act_updatev @ 633 
#  633 = _Z14obj_cast_spelliiP9char_dataS0_P8obj_data _Z14obj_cast_spelliiP9char_dataS0_P8obj_data @ 634 
#  634 = _Z14projectile_hitP9char_dataS0_P8obj_dataS2_s _Z14projectile_hitP9char_dataS0_P8obj_dataS2_s @ 635 
#  635 = _Z14pull_type_namei _Z14pull_type_namei @ 636 
#  636 = _Z14repair_one_objP9char_dataS0_P8obj_dataPKciS4_S4_ _Z14repair_one_objP9char_dataS0_P8obj_dataPKciS4_S4_ @ 637 
#  637 = _Z14save_mssp_infov _Z14save_mssp_infov @ 638 
#  638 = _Z14save_watchlistv _Z14save_watchlistv @ 639 
#  639 = _Z14send_mssp_dataP15descriptor_data _Z14send_mssp_dataP15descriptor_data @ 640 
#  640 = _Z14send_rip_titleP9char_data _Z14send_rip_titleP9char_data @ 641 
#  641 = _Z14set_bexit_flagP9exit_datai _Z14set_bexit_flagP9exit_datai @ 642 
#  642 = _Z14set_char_colorsP9char_data _Z14set_char_colorsP9char_data @ 643 
#  643 = _Z14show_conditionP9char_dataS0_ _Z14show_conditionP9char_dataS0_ @ 644 
#  644 = _Z14show_high_hashi _Z14show_high_hashi @ 645 
#  645 = _Z14show_race_lineP9char_dataS0_ _Z14show_race_lineP9char_dataS0_ @ 646 
#  646 = _Z14skill_functionPKc _Z14skill_functionPKc @ 647 
#  647 = _Z14spell_functionPKc _Z14spell_functionPKc @ 648 
#  648 = _Z14subtract_timesP7timevalS0_ _Z14subtract_timesP7timevalS0_ @ 649 
#  649 = _Z14trworld_create8trv_type _Z14trworld_create8trv_type @ 650 
#  650 = _Z14unlink_commandP8cmd_type _Z14unlink_commandP8cmd_type @ 651 
#  651 = _Z14update_handlerv _Z14update_handlerv @ 652 
#  652 = _Z14write_projectsv _Z14write_projectsv @ 653 
#  653 = _Z14write_to_pagerP15descriptor_dataPKcj _Z14write_to_pagerP15descriptor_dataPKcj @ 654 
#  654 = _Z15add_room_affectP15room_index_dataP9char_databPKc _Z15add_room_affectP15room_index_dataP9char_databPKc @ 655 
#  655 = _Z15affect_bit_nameP18extended_bitvector _Z15affect_bit_nameP18extended_bitvector @ 656 
#  656 = _Z15affect_loc_namei _Z15affect_loc_namei @ 657 
#  657 = _Z15bfs_clear_queuev _Z15bfs_clear_queuev @ 658 
#  658 = _Z15ch_printf_colorP9char_dataPKcz _Z15ch_printf_colorP9char_dataPKcz @ 659 
#  659 = _Z15check_alignmentP9char_data _Z15check_alignmentP9char_data @ 660 
#  660 = _Z15check_cmd_flagsP9char_dataP8cmd_type _Z15check_cmd_flagsP9char_dataP8cmd_type @ 661 
#  661 = _Z15check_reconnectP15descriptor_dataPKcb _Z15check_reconnectP15descriptor_dataPKcb @ 662 
#  662 = _Z15clean_obj_queuev _Z15clean_obj_queuev @ 663 
#  663 = _Z15close_all_areasv _Z15close_all_areasv @ 664 
#  664 = _Z15create_new_raceiPc _Z15create_new_raceiPc @ 665 
#  665 = _Z15default_fpromptP9char_data _Z15default_fpromptP9char_data @ 666 
#  666 = _Z15delete_variableP13variable_data _Z15delete_variableP13variable_data @ 667 
#  667 = _Z15do_unmorph_charP9char_data _Z15do_unmorph_charP9char_data @ 668 
#  668 = _Z15ext_flag_stringP18extended_bitvectorPKPKc _Z15ext_flag_stringP18extended_bitvectorPKPKc @ 669 
#  669 = _Z15ext_remove_bitsP18extended_bitvectorS0_ _Z15ext_remove_bitsP18extended_bitvectorS0_ @ 670 
#  670 = _Z15ext_toggle_bitsP18extended_bitvectorS0_ _Z15ext_toggle_bitsP18extended_bitvectorS0_ @ 671 
#  671 = _Z15find_first_stepP15room_index_dataS0_i _Z15find_first_stepP15room_index_dataS0_i @ 672 
#  672 = _Z15find_projectileP9char_datai _Z15find_projectileP9char_datai @ 673 
#  673 = _Z15fread_bitvectorP9__sFILE64 _Z15fread_bitvectorP9__sFILE64 @ 674 
#  674 = _Z15fread_fuss_areaP9area_dataP9__sFILE64 _Z15fread_fuss_areaP9area_dataP9__sFILE64 @ 675 
#  675 = _Z15fread_fuss_exitP9__sFILE64P15room_index_data _Z15fread_fuss_exitP9__sFILE64P15room_index_data @ 676 
#  676 = _Z15fread_fuss_roomP9__sFILE64P9area_data _Z15fread_fuss_roomP9__sFILE64P9area_data @ 677 
#  677 = _Z15fread_mssp_infoP9__sFILE64 _Z15fread_mssp_infoP9__sFILE64 @ 678 
#  678 = _Z15fread_news_typeP9news_typeP9__sFILE64 _Z15fread_news_typeP9news_typeP9__sFILE64 @ 679 
#  679 = _Z15free_all_planesv _Z15free_all_planesv @ 680 
#  680 = _Z15free_liquiddatav _Z15free_liquiddatav @ 681 
#  681 = _Z15fwrite_commentsP9char_dataP9__sFILE64 _Z15fwrite_commentsP9char_dataP9__sFILE64 @ 682 
#  682 = _Z15gather_one_listsiiibPi _Z15gather_one_listsiiibPi @ 683 
#  683 = _Z15get_chance_verbP8obj_data _Z15get_chance_verbP8obj_data @ 684 
#  684 = _Z15get_defenseflagPKc _Z15get_defenseflagPKc @ 685 
#  685 = _Z15get_exit_numberP15room_index_datai _Z15get_exit_numberP15room_index_datai @ 686 
#  686 = _Z15get_extra_descrPKcP16extra_descr_data _Z15get_extra_descrPKcP16extra_descr_data @ 687 
#  687 = _Z15hotboot_recoverv _Z15hotboot_recoverv @ 688 
#  688 = _Z15isBlusteryWindEi _Z15isBlusteryWindEi @ 689 
#  689 = _Z15isBlusteryWindNi _Z15isBlusteryWindNi @ 690 
#  690 = _Z15isBlusteryWindSi _Z15isBlusteryWindSi @ 691 
#  691 = _Z15isBlusteryWindWi _Z15isBlusteryWindWi @ 692 
#  692 = _Z15isExtremelyColdi _Z15isExtremelyColdi @ 693 
#  693 = _Z15is_name2_prefixPKcS0_ _Z15is_name2_prefixPKcS0_ @ 694 
#  694 = _Z15load_class_filePKc _Z15load_class_filePKc @ 695 
#  695 = _Z15load_deity_filePKc _Z15load_deity_filePKc @ 696 
#  696 = _Z15load_herb_tablev _Z15load_herb_tablev @ 697 
#  697 = _Z15load_room_resetP15room_index_dataP9__sFILE64 _Z15load_room_resetP15room_index_dataP9__sFILE64 @ 698 
#  698 = _Z15load_systemdataP11system_data _Z15load_systemdataP11system_data @ 699 
#  699 = _Z15load_weathermapv _Z15load_weathermapv @ 700 
#  700 = _Z15log_printf_plusssPKcz _Z15log_printf_plusssPKcz @ 701 
#  701 = _Z15log_string_plusPKcss _Z15log_string_plusPKcss @ 702 
#  702 = _Z15make_bloodstainP9char_data _Z15make_bloodstainP9char_data @ 703 
#  703 = _Z15make_char_morphP10morph_data _Z15make_char_morphP10morph_data @ 704 
#  704 = _Z15mprog_file_readP14mob_index_dataPKc _Z15mprog_file_readP14mob_index_dataPKc @ 705 
#  705 = _Z15mprog_translatecPcP9char_dataS1_P8obj_dataPKvS1_ _Z15mprog_translatecPcP9char_dataS1_P8obj_dataPKvS1_ @ 706 
#  706 = _Z15nanny_read_motdP15descriptor_dataPKc _Z15nanny_read_motdP15descriptor_dataPKc @ 707 
#  707 = _Z15new_dam_messageP9char_dataS0_ijP8obj_data _Z15new_dam_messageP9char_dataS0_ijP8obj_data @ 708 
#  708 = _Z15num_rooms_availP9char_data _Z15num_rooms_availP9char_data @ 709 
#  709 = _Z15number_argumentPKcPc _Z15number_argumentPKcPc @ 710 
#  710 = _Z15oprog_file_readP14obj_index_dataPKc _Z15oprog_file_readP14obj_index_dataPKc @ 711 
#  711 = _Z15personal_lookupP9char_dataPKc _Z15personal_lookupP9char_dataPKc @ 712 
#  712 = _Z15print_bitvectorP18extended_bitvector _Z15print_bitvectorP18extended_bitvector @ 713 
#  713 = _Z15process_sortingP9area_data _Z15process_sortingP9area_data @ 714 
#  714 = _Z15randomize_exitsP15room_index_datas _Z15randomize_exitsP15room_index_datas @ 715 
#  715 = _Z15room_act_updatev _Z15room_act_updatev @ 716 
#  716 = _Z15room_is_privateP15room_index_data _Z15room_is_privateP15room_index_data @ 717 
#  717 = _Z15rprog_file_readP15room_index_dataPKc _Z15rprog_file_readP15room_index_dataPKc @ 718 
#  718 = _Z15save_herb_tablev _Z15save_herb_tablev @ 719 
#  719 = _Z15save_weathermapv _Z15save_weathermapv @ 720 
#  720 = _Z15scan_for_victimP9char_dataP9exit_dataPKc _Z15scan_for_victimP9char_dataP9exit_dataPKc @ 721 
#  721 = _Z15send_ansi_titleP9char_data _Z15send_ansi_titleP9char_data @ 722 
#  722 = _Z15send_rip_screenP9char_data _Z15send_rip_screenP9char_data @ 723 
#  723 = _Z15set_pager_colorsP9char_data _Z15set_pager_colorsP9char_data @ 724 
#  724 = _Z15set_pager_inputP15descriptor_dataPc _Z15set_pager_inputP15descriptor_dataPc @ 725 
#  725 = _Z15translate_exitsP9char_dataP9area_dataP14renumber_areasb _Z15translate_exitsP9char_dataP9area_dataP14renumber_areasb @ 726 
#  726 = _Z15translate_resetP10reset_dataP14renumber_areas _Z15translate_resetP10reset_dataP14renumber_areas @ 727 
#  727 = _Z15trworld_disposePP9trv_world _Z15trworld_disposePP9trv_world @ 728 
#  728 = _Z15update_calendarv _Z15update_calendarv @ 729 
#  729 = _Z15uphold_supermobPiiPP15room_index_dataP8obj_data _Z15uphold_supermobPiiPP15room_index_dataP8obj_data @ 730 
#  730 = _Z15violence_updatev _Z15violence_updatev @ 731 
#  731 = _Z15write_area_listv _Z15write_area_listv @ 732 
#  732 = _Z15write_clan_listv _Z15write_clan_listv @ 733 
#  733 = _Z15write_race_filei _Z15write_race_filei @ 734 
#  734 = _Z15write_to_bufferP15descriptor_dataPKcj _Z15write_to_bufferP15descriptor_dataPKcj @ 735 
#  735 = _Z16DecreaseHumidityP11WeatherCelli _Z16DecreaseHumidityP11WeatherCelli @ 736 
#  736 = _Z16DecreasePressureP11WeatherCelli _Z16DecreasePressureP11WeatherCelli @ 737 
#  737 = _Z16ExceedsThresholdiii _Z16ExceedsThresholdiii @ 738 
#  738 = _Z16IncreaseHumidityP11WeatherCelli _Z16IncreaseHumidityP11WeatherCelli @ 739 
#  739 = _Z16IncreasePressureP11WeatherCelli _Z16IncreasePressureP11WeatherCelli @ 740 
#  740 = _Z16check_illegal_pkP9char_dataS0_ _Z16check_illegal_pkP9char_dataS0_ @ 741 
#  741 = _Z16check_parse_namePKcb _Z16check_parse_namePKcb @ 742 
#  742 = _Z16check_total_bansP15descriptor_data _Z16check_total_bansP15descriptor_data @ 743 
#  743 = _Z16clean_char_queuev _Z16clean_char_queuev @ 744 
#  744 = _Z16clean_room_queuev _Z16clean_room_queuev @ 745 
#  745 = _Z16clear_char_morphP10char_morph _Z16clear_char_morphP10char_morph @ 746 
#  746 = _Z16create_new_classiPKc _Z16create_new_classiPKc @ 747 
#  747 = _Z16find_translationiP13renumber_data _Z16find_translationiP13renumber_data @ 748 
#  748 = _Z16fread_flagstringP9__sFILE64 _Z16fread_flagstringP9__sFILE64 @ 749 
#  749 = _Z16fread_memberlistP9clan_dataP9__sFILE64 _Z16fread_memberlistP9clan_dataP9__sFILE64 @ 750 
#  750 = _Z16fread_morph_dataP9char_dataP9__sFILE64 _Z16fread_morph_dataP9char_dataP9__sFILE64 @ 751 
#  751 = _Z16free_one_councilP12council_data _Z16free_one_councilP12council_data @ 752 
#  752 = _Z16fwrite_bitvectorP18extended_bitvectorP9__sFILE64 _Z16fwrite_bitvectorP18extended_bitvectorP9__sFILE64 @ 753 
#  753 = _Z16fwrite_fuss_exitP9__sFILE64P9exit_data _Z16fwrite_fuss_exitP9__sFILE64P9exit_data @ 754 
#  754 = _Z16fwrite_fuss_roomP9__sFILE64P15room_index_datab _Z16fwrite_fuss_roomP9__sFILE64P15room_index_datab @ 755 
#  755 = _Z16fwrite_variablesP9char_dataP9__sFILE64 _Z16fwrite_variablesP9char_dataP9__sFILE64 @ 756 
#  756 = _Z16get_npc_positionPKc _Z16get_npc_positionPKc @ 757 
#  757 = _Z16get_obj_list_revP9char_dataPKcP8obj_data _Z16get_obj_list_revP9char_dataPKcP8obj_data @ 758 
#  758 = _Z16get_ssave_effectPKc _Z16get_ssave_effectPKc @ 759 
#  759 = _Z16get_waiting_descP9char_dataPc _Z16get_waiting_descP9char_dataPc @ 760 
#  760 = _Z16isExtremelyHumidi _Z16isExtremelyHumidi @ 761 
#  761 = _Z16isGaleForceWindEi _Z16isGaleForceWindEi @ 762 
#  762 = _Z16isGaleForceWindNi _Z16isGaleForceWindNi @ 763 
#  763 = _Z16isGaleForceWindSi _Z16isGaleForceWindSi @ 764 
#  764 = _Z16isGaleForceWindWi _Z16isGaleForceWindWi @ 765 
#  765 = _Z16isRainingLightlyi _Z16isRainingLightlyi @ 766 
#  766 = _Z16isSwelteringHeati _Z16isSwelteringHeati @ 767 
#  767 = _Z16is_reserved_namePKc _Z16is_reserved_namePKc @ 768 
#  768 = _Z16load_skill_tablev _Z16load_skill_tablev @ 769 
#  769 = _Z16mprog_do_commandPKcP9char_dataS2_P8obj_dataPKvS2_bb _Z16mprog_do_commandPKcP9char_dataS2_P8obj_dataPKvS2_bb @ 770 
#  770 = _Z16mprog_do_ifcheckPKcP9char_dataS2_P8obj_dataPKvS2_ _Z16mprog_do_ifcheckPKcP9char_dataS2_P8obj_dataPKvS2_ @ 771 
#  771 = _Z16mprog_time_checkP9char_dataS0_P8obj_dataPvi _Z16mprog_time_checkP9char_dataS0_P8obj_dataPvi @ 772 
#  772 = _Z16mprog_write_progP9__sFILE64P13mob_prog_data _Z16mprog_write_progP9__sFILE64P13mob_prog_data @ 773 
#  773 = _Z16name_stamp_statsP9char_data _Z16name_stamp_statsP9char_data @ 774 
#  774 = _Z16read_char_mobilePc _Z16read_char_mobilePc @ 775 
#  775 = _Z16read_from_bufferP15descriptor_data _Z16read_from_bufferP15descriptor_data @ 776 
#  776 = _Z16release_supermobv _Z16release_supermobv @ 777 
#  777 = _Z16rprog_time_checkP9char_dataS0_P8obj_dataPvi _Z16rprog_time_checkP9char_dataS0_P8obj_dataPvi @ 778 
#  778 = _Z16save_reset_levelP9__sFILE64P10reset_datai _Z16save_reset_levelP9__sFILE64P10reset_datai @ 779 
#  779 = _Z16save_skill_tablev _Z16save_skill_tablev @ 780 
#  780 = _Z16saves_para_petriiP9char_data _Z16saves_para_petriiP9char_data @ 781 
#  781 = _Z16send_ascii_titleP9char_data _Z16send_ascii_titleP9char_data @ 782 
#  782 = _Z16setup_morph_vnumv _Z16setup_morph_vnumv @ 783 
#  783 = _Z16show_colorthemesP9char_data _Z16show_colorthemesP9char_data @ 784 
#  784 = _Z16smash_tilde_copyPKc _Z16smash_tilde_copyPKc @ 785 
#  785 = _Z16sort_skill_tablev _Z16sort_skill_tablev @ 786 
#  786 = _Z16spell_affectchariiP9char_dataPv _Z16spell_affectchariiP9char_dataPv @ 787 
#  787 = _Z16spell_create_mobiiP9char_dataPv _Z16spell_create_mobiiP9char_dataPv @ 788 
#  788 = _Z16spell_create_objiiP9char_dataPv _Z16spell_create_objiiP9char_dataPv @ 789 
#  789 = _Z16summon_if_hatingP9char_data _Z16summon_if_hatingP9char_data @ 790 
#  790 = _Z16wipe_area_resetsP9area_data _Z16wipe_area_resetsP9area_data @ 791 
#  791 = _Z16write_boards_txtv _Z16write_boards_txtv @ 792 
#  792 = _Z16write_class_filei _Z16write_class_filei @ 793 
#  793 = _Z16write_deity_listv _Z16write_deity_listv @ 794 
#  794 = _Z17ApplyDeltaChangesv _Z17ApplyDeltaChangesv @ 795 
#  795 = _Z17build_prime_planev _Z17build_prime_planev @ 796 
#  796 = _Z17display_news_typeP9char_dataP9news_typePc _Z17display_news_typeP9char_dataP9news_typePc @ 797 
#  797 = _Z17do_write_imm_hostv _Z17do_write_imm_hostv @ 798 
#  798 = _Z17economize_mobgoldP9char_data _Z17economize_mobgoldP9char_data @ 799 
#  799 = _Z17fread_fuss_affectP9__sFILE64PKc _Z17fread_fuss_affectP9__sFILE64PKc @ 800 
#  800 = _Z17fread_fuss_exdescP9__sFILE64 _Z17fread_fuss_exdescP9__sFILE64 @ 801 
#  801 = _Z17fread_fuss_mobileP9__sFILE64P9area_data _Z17fread_fuss_mobileP9__sFILE64P9area_data @ 802 
#  802 = _Z17fread_fuss_objectP9__sFILE64P9area_data _Z17fread_fuss_objectP9__sFILE64P9area_data @ 803 
#  803 = _Z17free_all_reservedv _Z17free_all_reservedv @ 804 
#  804 = _Z17fwrite_memberlistP9__sFILE64P9clan_data _Z17fwrite_memberlistP9__sFILE64P9clan_data @ 805 
#  805 = _Z17fwrite_morph_dataP9char_dataP9__sFILE64 _Z17fwrite_morph_dataP9char_dataP9__sFILE64 @ 806 
#  806 = _Z17get_log_by_numberP12project_datai _Z17get_log_by_numberP12project_datai @ 807 
#  807 = _Z17get_reboot_stringv _Z17get_reboot_stringv @ 808 
#  808 = _Z17isExtremelyCloudyi _Z17isExtremelyCloudyi @ 809 
#  809 = _Z17isModeratelyHumidi _Z17isModeratelyHumidi @ 810 
#  810 = _Z17isRaingingHeavilyi _Z17isRaingingHeavilyi @ 811 
#  811 = _Z17isRainingSteadilyi _Z17isRainingSteadilyi @ 812 
#  812 = _Z17is_valid_filenameP9char_dataPKcS2_ _Z17is_valid_filenameP9char_dataPKcS2_ @ 813 
#  813 = _Z17link_news_to_typeP9news_data _Z17link_news_to_typeP9news_data @ 814 
#  814 = _Z17load_council_filePKc _Z17load_council_filePKc @ 815 
#  815 = _Z17mobprog_file_readP14mob_index_dataPKc _Z17mobprog_file_readP14mob_index_dataPKc @ 816 
#  816 = _Z17mprog_act_triggerPKcP9char_dataS2_P8obj_dataPKv _Z17mprog_act_triggerPKcP9char_dataS2_P8obj_dataPKv @ 817 
#  817 = _Z17nanny_get_new_sexP15descriptor_dataPc _Z17nanny_get_new_sexP15descriptor_dataPc @ 818 
#  818 = _Z17nanny_press_enterP15descriptor_dataPKc _Z17nanny_press_enterP15descriptor_dataPKc @ 819 
#  819 = _Z17objprog_file_readP14obj_index_dataPKc _Z17objprog_file_readP14obj_index_dataPKc @ 820 
#  820 = _Z17oprog_act_triggerPKcP8obj_dataP9char_dataS2_PKv _Z17oprog_act_triggerPKcP8obj_dataP9char_dataS2_PKv @ 821 
#  821 = _Z17oprog_get_triggerP9char_dataP8obj_data _Z17oprog_get_triggerP9char_dataP8obj_data @ 822 
#  822 = _Z17oprog_sac_triggerP9char_dataP8obj_data _Z17oprog_sac_triggerP9char_dataP8obj_data @ 823 
#  823 = _Z17oprog_use_triggerP9char_dataP8obj_dataS0_S2_ _Z17oprog_use_triggerP9char_dataP8obj_dataS0_S2_ @ 824 
#  824 = _Z17oprog_zap_triggerP9char_dataP8obj_data _Z17oprog_zap_triggerP9char_dataP8obj_data @ 825 
#  825 = _Z17ranged_got_targetP9char_dataS0_P8obj_dataS2_ssPKcs _Z17ranged_got_targetP9char_dataS0_P8obj_dataS2_ssPKcs @ 826 
#  826 = _Z17remove_area_namesPKcPc _Z17remove_area_namesPKcPc @ 827 
#  827 = _Z17remove_bexit_flagP9exit_datai _Z17remove_bexit_flagP9exit_datai @ 828 
#  828 = _Z17rprog_act_triggerPKcP15room_index_dataP9char_dataP8obj_dataPKv _Z17rprog_act_triggerPKcP15room_index_dataP9char_dataP8obj_dataPKv @ 829 
#  829 = _Z17saves_spell_staffiP9char_data _Z17saves_spell_staffiP9char_data @ 830 
#  830 = _Z17show_char_to_charP9char_dataS0_ _Z17show_char_to_charP9char_dataS0_ @ 831 
#  831 = _Z17show_list_to_charP8obj_dataP9char_databb _Z17show_list_to_charP8obj_dataP9char_databb @ 832 
#  832 = _Z17skill_comp_bytypePP10skill_typeS1_ _Z17skill_comp_bytypePP10skill_typeS1_ @ 833 
#  833 = _Z17sort_area_by_nameP9area_data _Z17sort_area_by_nameP9area_data @ 834 
#  834 = _Z17spell_area_attackiiP9char_dataPv _Z17spell_area_attackiiP9char_dataPv @ 835 
#  835 = _Z17toggle_bexit_flagP9exit_datai _Z17toggle_bexit_flagP9exit_datai @ 836 
#  836 = _Z17translate_objvalsP9char_dataP9area_dataP14renumber_areasb _Z17translate_objvalsP9char_dataP9area_dataP14renumber_areasb @ 837 
#  837 = _Z17trworld_obj_checkP8obj_data _Z17trworld_obj_checkP8obj_data @ 838 
#  838 = _Z17update_room_resetP9char_datab _Z17update_room_resetP9char_datab @ 839 
#  839 = _Z17validate_spec_funPKc _Z17validate_spec_funPKc @ 840 
#  840 = _Z17write_char_mobileP9char_dataPc _Z17write_char_mobileP9char_dataPc @ 841 
#  841 = _Z17write_watch_filesP9char_dataP8cmd_typePc _Z17write_watch_filesP9char_dataP8cmd_typePc @ 842 
#  842 = _Z18ClearWeatherDeltasv _Z18ClearWeatherDeltasv @ 843 
#  843 = _Z18DecreaseCloudCoverP11WeatherCelli _Z18DecreaseCloudCoverP11WeatherCelli @ 844 
#  844 = _Z18IncreaseCloudCoverP11WeatherCelli _Z18IncreaseCloudCoverP11WeatherCelli @ 845 
#  845 = _Z18copy_buffer_nohashP9char_data _Z18copy_buffer_nohashP9char_data @ 846 
#  846 = _Z18extract_area_namesPKcPc _Z18extract_area_namesPKcPc @ 847 
#  847 = _Z18find_skill_of_typeP9char_dataPKcbi _Z18find_skill_of_typeP9char_dataPKcbi @ 848 
#  848 = _Z18format_obj_to_charP8obj_dataP9char_datab _Z18format_obj_to_charP8obj_dataP9char_datab @ 849 
#  849 = _Z18fread_fuss_mobprogP9__sFILE64P13mob_prog_dataP14mob_index_data _Z18fread_fuss_mobprogP9__sFILE64P13mob_prog_dataP14mob_index_data @ 850 
#  850 = _Z18fread_fuss_objprogP9__sFILE64P13mob_prog_dataP14obj_index_data _Z18fread_fuss_objprogP9__sFILE64P13mob_prog_dataP14obj_index_data @ 851 
#  851 = _Z18free_prog_actlistsv _Z18free_prog_actlistsv @ 852 
#  852 = _Z18free_renumber_dataP13renumber_data _Z18free_renumber_dataP13renumber_data @ 853 
#  853 = _Z18fwrite_area_headerP9__sFILE64P9area_datab _Z18fwrite_area_headerP9__sFILE64P9area_datab @ 854 
#  854 = _Z18fwrite_fuss_affectP9__sFILE64P11affect_data _Z18fwrite_fuss_affectP9__sFILE64P11affect_data @ 855 
#  855 = _Z18fwrite_fuss_exdescP9__sFILE64P16extra_descr_data _Z18fwrite_fuss_exdescP9__sFILE64P16extra_descr_data @ 856 
#  856 = _Z18fwrite_fuss_mobileP9__sFILE64P14mob_index_datab _Z18fwrite_fuss_mobileP9__sFILE64P14mob_index_datab @ 857 
#  857 = _Z18fwrite_fuss_objectP9__sFILE64P14obj_index_datab _Z18fwrite_fuss_objectP9__sFILE64P14obj_index_datab @ 858 
#  858 = _Z18generate_itemlevelP9area_dataP14obj_index_data _Z18generate_itemlevelP9area_dataP14obj_index_data @ 859 
#  859 = _Z18get_obj_resistanceP8obj_data _Z18get_obj_resistanceP8obj_data @ 860 
#  860 = _Z18in_magic_containerP8obj_data _Z18in_magic_containerP8obj_data @ 861 
#  861 = _Z18initialize_economyv _Z18initialize_economyv @ 862 
#  862 = _Z18isModeratelyCloudyi _Z18isModeratelyCloudyi @ 863 
#  863 = _Z18learn_from_failureP9char_datai _Z18learn_from_failureP9char_datai @ 864 
#  864 = _Z18learn_from_successP9char_datai _Z18learn_from_successP9char_datai @ 865 
#  865 = _Z18make_new_map_indexi _Z18make_new_map_indexi @ 866 
#  866 = _Z18mprog_give_triggerP9char_dataS0_P8obj_data _Z18mprog_give_triggerP9char_dataS0_P8obj_data @ 867 
#  867 = _Z18mprog_hour_triggerP9char_data _Z18mprog_hour_triggerP9char_data @ 868 
#  868 = _Z18mprog_name_to_typePKc _Z18mprog_name_to_typePKc @ 869 
#  869 = _Z18mprog_next_commandPc _Z18mprog_next_commandPc @ 870 
#  870 = _Z18mprog_sell_triggerP9char_dataS0_P8obj_data _Z18mprog_sell_triggerP9char_dataS0_P8obj_data @ 871 
#  871 = _Z18mprog_tell_triggerPKcP9char_data _Z18mprog_tell_triggerPKcP9char_data @ 872 
#  872 = _Z18mprog_time_triggerP9char_data _Z18mprog_time_triggerP9char_data @ 873 
#  873 = _Z18mprog_type_to_namei _Z18mprog_type_to_namei @ 874 
#  874 = _Z18nanny_get_new_raceP15descriptor_dataPKc _Z18nanny_get_new_raceP15descriptor_dataPKc @ 875 
#  875 = _Z18oprog_drop_triggerP9char_dataP8obj_data _Z18oprog_drop_triggerP9char_dataP8obj_data @ 876 
#  876 = _Z18oprog_pull_triggerP9char_dataP8obj_data _Z18oprog_pull_triggerP9char_dataP8obj_data @ 877 
#  877 = _Z18oprog_push_triggerP9char_dataP8obj_data _Z18oprog_push_triggerP9char_dataP8obj_data @ 878 
#  878 = _Z18oprog_wear_triggerP9char_dataP8obj_data _Z18oprog_wear_triggerP9char_dataP8obj_data @ 879 
#  879 = _Z18pager_printf_colorP9char_dataPKcz _Z18pager_printf_colorP9char_dataPKcz @ 880 
#  880 = _Z18process_compressedP15descriptor_data _Z18process_compressedP15descriptor_data @ 881 
#  881 = _Z18remap_slot_numbersv _Z18remap_slot_numbersv @ 882 
#  882 = _Z18remove_all_rostersP9clan_data _Z18remove_all_rostersP9clan_data @ 883 
#  883 = _Z18remove_room_affectP15room_index_dataP9char_databPKc _Z18remove_room_affectP15room_index_dataP9char_databPKc @ 884 
#  884 = _Z18roomprog_file_readP15room_index_dataPKc _Z18roomprog_file_readP15room_index_dataPKc @ 885 
#  885 = _Z18rprog_hour_triggerP9char_data _Z18rprog_hour_triggerP9char_data @ 886 
#  886 = _Z18rprog_rest_triggerP9char_data _Z18rprog_rest_triggerP9char_data @ 887 
#  887 = _Z18rprog_time_triggerP9char_data _Z18rprog_time_triggerP9char_data @ 888 
#  888 = _Z18saves_poison_deathiP9char_data _Z18saves_poison_deathiP9char_data @ 889 
#  889 = _Z18send_morph_messageP9char_dataP10morph_datab _Z18send_morph_messageP9char_dataP10morph_datab @ 890 
#  890 = _Z18send_to_char_colorPKcP9char_data _Z18send_to_char_colorPKcP9char_data @ 891 
#  891 = _Z18send_to_desc_colorPKcP15descriptor_data _Z18send_to_desc_colorPKcP15descriptor_data @ 892 
#  892 = _Z18successful_castingP10skill_typeP9char_dataS2_P8obj_data _Z18successful_castingP10skill_typeP9char_dataS2_P8obj_data @ 893 
#  893 = _Z18trworld_char_checkP9char_data _Z18trworld_char_checkP9char_data @ 894 
#  894 = _Z18write_council_listv _Z18write_council_listv @ 895 
#  895 = _Z19DropsBelowThresholdiii _Z19DropsBelowThresholdiii @ 896 
#  896 = _Z19add_new_room_to_mapP9char_datac _Z19add_new_room_to_mapP9char_datac @ 897 
#  897 = _Z19better_mental_stateP9char_datai _Z19better_mental_stateP9char_datai @ 898 
#  898 = _Z19check_area_conflictP9area_dataii _Z19check_area_conflictP9area_dataii @ 899 
#  899 = _Z19fread_fuss_areadataP9__sFILE64P9area_data _Z19fread_fuss_areadataP9__sFILE64P9area_data @ 900 
#  900 = _Z19fread_fuss_roomprogP9__sFILE64P13mob_prog_dataP15room_index_data _Z19fread_fuss_roomprogP9__sFILE64P13mob_prog_dataP15room_index_data @ 901 
#  901 = _Z19fread_string_nohashP9__sFILE64 _Z19fread_string_nohashP9__sFILE64 @ 902 
#  902 = _Z19get_real_obj_weightP8obj_data _Z19get_real_obj_weightP8obj_data @ 903 
#  903 = _Z19hallucinated_objectib _Z19hallucinated_objectib @ 904 
#  904 = _Z19is_attack_supressedP9char_data _Z19is_attack_supressedP9char_data @ 905 
#  905 = _Z19load_smaugwiz_resetP15room_index_dataP9__sFILE64 _Z19load_smaugwiz_resetP15room_index_dataP9__sFILE64 @ 906 
#  906 = _Z19mprog_bribe_triggerP9char_dataS0_i _Z19mprog_bribe_triggerP9char_dataS0_i @ 907 
#  907 = _Z19mprog_death_triggerP9char_dataS0_ _Z19mprog_death_triggerP9char_dataS0_ @ 908 
#  908 = _Z19mprog_entry_triggerP9char_data _Z19mprog_entry_triggerP9char_data @ 909 
#  909 = _Z19mprog_fight_triggerP9char_dataS0_ _Z19mprog_fight_triggerP9char_dataS0_ @ 910 
#  910 = _Z19mprog_greet_triggerP9char_data _Z19mprog_greet_triggerP9char_data @ 911 
#  911 = _Z19mprog_keyword_checkPKcS0_ _Z19mprog_keyword_checkPKcS0_ @ 912 
#  912 = _Z19mprog_percent_checkP9char_dataS0_P8obj_dataPvi _Z19mprog_percent_checkP9char_dataS0_P8obj_dataPvi @ 913 
#  913 = _Z19mprog_read_programsP9__sFILE64P14mob_index_data _Z19mprog_read_programsP9__sFILE64P14mob_index_data @ 914 
#  914 = _Z19nanny_get_new_classP15descriptor_dataPKc _Z19nanny_get_new_classP15descriptor_dataPKc @ 915 
#  915 = _Z19oprog_greet_triggerP9char_data _Z19oprog_greet_triggerP9char_data @ 916 
#  916 = _Z19oprog_percent_checkP9char_dataS0_P8obj_dataPvi _Z19oprog_percent_checkP9char_dataS0_P8obj_dataPvi @ 917 
#  917 = _Z19oprog_read_programsP9__sFILE64P14obj_index_data _Z19oprog_read_programsP9__sFILE64P14obj_index_data @ 918 
#  918 = _Z19queue_extracted_objP8obj_data _Z19queue_extracted_objP8obj_data @ 919 
#  919 = _Z19recursive_note_findP8obj_dataPKc _Z19recursive_note_findP8obj_dataPKc @ 920 
#  920 = _Z19renumber_put_resetsP15room_index_data _Z19renumber_put_resetsP15room_index_data @ 921 
#  921 = _Z19rprog_death_triggerP9char_data _Z19rprog_death_triggerP9char_data @ 922 
#  922 = _Z19rprog_enter_triggerP9char_data _Z19rprog_enter_triggerP9char_data @ 923 
#  923 = _Z19rprog_leave_triggerP9char_data _Z19rprog_leave_triggerP9char_data @ 924 
#  924 = _Z19rprog_percent_checkP9char_dataS0_P8obj_dataPvi _Z19rprog_percent_checkP9char_dataS0_P8obj_dataPvi @ 925 
#  925 = _Z19rprog_read_programsP9__sFILE64P15room_index_data _Z19rprog_read_programsP9__sFILE64P15room_index_data @ 926 
#  926 = _Z19rprog_sleep_triggerP9char_data _Z19rprog_sleep_triggerP9char_data @ 927 
#  927 = _Z19save_clan_storeroomP9char_dataP9clan_data _Z19save_clan_storeroomP9char_dataP9clan_data @ 928 
#  928 = _Z19send_to_pager_colorPKcP9char_data _Z19send_to_pager_colorPKcP9char_data @ 929 
#  929 = _Z19show_char_to_char_0P9char_dataS0_ _Z19show_char_to_char_0P9char_dataS0_ @ 930 
#  930 = _Z19show_char_to_char_1P9char_dataS0_ _Z19show_char_to_char_1P9char_dataS0_ @ 931 
#  931 = _Z19worsen_mental_stateP9char_datai _Z19worsen_mental_stateP9char_datai @ 932 
#  932 = _Z19write_to_descriptorP15descriptor_dataPKci _Z19write_to_descriptorP15descriptor_dataPKci @ 933 
#  933 = _Z20InitializeWeatherMapv _Z20InitializeWeatherMapv @ 934 
#  934 = _Z20char_calendar_updatev _Z20char_calendar_updatev @ 935 
#  935 = _Z20check_area_conflictsii _Z20check_area_conflictsii @ 936 
#  936 = _Z20check_illegal_pstealP9char_dataS0_ _Z20check_illegal_pstealP9char_dataS0_ @ 937 
#  937 = _Z20check_room_for_trapsP9char_datai _Z20check_room_for_trapsP9char_datai @ 938 
#  938 = _Z20gather_renumber_dataP9area_dataib _Z20gather_renumber_dataP9area_dataib @ 939 
#  939 = _Z20isRainingCatsAndDogsi _Z20isRainingCatsAndDogsi @ 940 
#  940 = _Z20isTorrentialDownpouri _Z20isTorrentialDownpouri @ 941 
#  941 = _Z20is_wielding_poisonedP9char_data _Z20is_wielding_poisonedP9char_data @ 942 
#  942 = _Z20mprog_random_triggerP9char_data _Z20mprog_random_triggerP9char_data @ 943 
#  943 = _Z20mprog_script_triggerP9char_data _Z20mprog_script_triggerP9char_data @ 944 
#  944 = _Z20mprog_speech_triggerPKcP9char_data _Z20mprog_speech_triggerPKcP9char_data @ 945 
#  945 = _Z20mprog_wordlist_checkPKcP9char_dataS2_P8obj_dataPKvi _Z20mprog_wordlist_checkPKcP9char_dataS2_P8obj_dataPKvi @ 946 
#  946 = _Z20nifty_is_name_prefixPKcS0_ _Z20nifty_is_name_prefixPKcS0_ @ 947 
#  947 = _Z20oprog_damage_triggerP9char_dataP8obj_data _Z20oprog_damage_triggerP9char_dataP8obj_data @ 948 
#  948 = _Z20oprog_random_triggerP8obj_data _Z20oprog_random_triggerP8obj_data @ 949 
#  949 = _Z20oprog_remove_triggerP9char_dataP8obj_data _Z20oprog_remove_triggerP9char_dataP8obj_data @ 950 
#  950 = _Z20oprog_repair_triggerP9char_dataP8obj_data _Z20oprog_repair_triggerP9char_dataP8obj_data @ 951 
#  951 = _Z20oprog_script_triggerP8obj_data _Z20oprog_script_triggerP8obj_data @ 952 
#  952 = _Z20oprog_speech_triggerPKcP9char_data _Z20oprog_speech_triggerPKcP9char_data @ 953 
#  953 = _Z20oprog_wordlist_checkPKcP9char_dataS2_P8obj_dataPKviS4_ _Z20oprog_wordlist_checkPKcP9char_dataS2_P8obj_dataPKviS4_ @ 954 
#  954 = _Z20queue_extracted_charP9char_datab _Z20queue_extracted_charP9char_datab @ 955 
#  955 = _Z20read_from_descriptorP15descriptor_data _Z20read_from_descriptorP15descriptor_data @ 956 
#  956 = _Z20rprog_random_triggerP9char_data _Z20rprog_random_triggerP9char_data @ 957 
#  957 = _Z20rprog_rfight_triggerP9char_data _Z20rprog_rfight_triggerP9char_data @ 958 
#  958 = _Z20rprog_script_triggerP15room_index_data _Z20rprog_script_triggerP15room_index_data @ 959 
#  959 = _Z20rprog_speech_triggerPKcP9char_data _Z20rprog_speech_triggerPKcP9char_data @ 960 
#  960 = _Z20rprog_wordlist_checkPKcP9char_dataS2_P8obj_dataPKviP15room_index_data _Z20rprog_wordlist_checkPKcP9char_dataS2_P8obj_dataPKviP15room_index_data @ 961 
#  961 = _Z20tiny_affect_loc_namei _Z20tiny_affect_loc_namei @ 962 
#  962 = _Z21check_immortal_domainP9char_dataPKc _Z21check_immortal_domainP9char_dataPKc @ 963 
#  963 = _Z21get_project_by_numberi _Z21get_project_by_numberi @ 964 
#  964 = _Z21mprog_command_triggerP9char_dataPc _Z21mprog_command_triggerP9char_dataPc @ 965 
#  965 = _Z21oprog_command_triggerP9char_dataPc _Z21oprog_command_triggerP9char_dataPc @ 966 
#  966 = _Z21oprog_examine_triggerP9char_dataP8obj_data _Z21oprog_examine_triggerP9char_dataP8obj_data @ 967 
#  967 = _Z21rprog_command_triggerP9char_dataPc _Z21rprog_command_triggerP9char_dataPc @ 968 
#  968 = _Z22loot_coins_from_corpseP9char_dataP8obj_data _Z22loot_coins_from_corpseP9char_dataP8obj_data @ 969 
#  969 = _Z22mprog_hitprcnt_triggerP9char_dataS0_ _Z22mprog_hitprcnt_triggerP9char_dataS0_ @ 970 
#  970 = _Z22nanny_confirm_new_nameP15descriptor_dataPc _Z22nanny_confirm_new_nameP15descriptor_dataPc @ 971 
#  971 = _Z22nanny_get_new_passwordP15descriptor_dataPc _Z22nanny_get_new_passwordP15descriptor_dataPc @ 972 
#  972 = _Z22nanny_get_old_passwordP15descriptor_dataPc _Z22nanny_get_old_passwordP15descriptor_dataPc @ 973 
#  973 = _Z22nanny_get_want_ripansiP15descriptor_dataPKc _Z22nanny_get_want_ripansiP15descriptor_dataPKc @ 974 
#  974 = _Z23weapon_prof_bonus_checkP9char_dataP8obj_dataPi _Z23weapon_prof_bonus_checkP9char_dataP8obj_dataPi @ 975 
#  975 = _Z23write_to_descriptor_oldiPKci _Z23write_to_descriptor_oldiPKci @ 976 
#  976 = _Z24EnforceClimateConditionsv _Z24EnforceClimateConditionsv @ 977 
#  977 = _Z24check_for_area_conflictsP9area_dataii _Z24check_for_area_conflictsP9area_dataii @ 978 
#  978 = _Z24process_spell_componentsP9char_datai _Z24process_spell_componentsP9char_datai @ 979 
#  979 = _Z26CalculateCellToCellChangesv _Z26CalculateCellToCellChangesv @ 980 
#  980 = _Z26ability_learn_from_successP9char_datai _Z26ability_learn_from_successP9char_datai @ 981 
#  981 = _Z26nanny_confirm_new_passwordP15descriptor_dataPc _Z26nanny_confirm_new_passwordP15descriptor_dataPc @ 982 
#  982 = _Z26write_to_descriptor_printfP15descriptor_dataPKcz _Z26write_to_descriptor_printfP15descriptor_dataPKcz @ 983 
#  983 = _Z28show_visible_affects_to_charP9char_dataS0_ _Z28show_visible_affects_to_charP9char_dataS0_ @ 984 
#  984 = _Z3actsPKcP9char_dataPKvS4_i _Z3actsPKcP9char_dataPKvS4_i @ 985 
#  985 = _Z3bugPKcz _Z3bugPKcz @ 986 
#  986 = _Z3mebi _Z3mebi @ 987 
#  987 = _Z4diceii _Z4diceii @ 988 
#  988 = _Z4tripP9char_dataS0_ _Z4tripP9char_dataS0_ @ 989 
#  989 = _Z4umaxii _Z4umaxii @ 990 
#  990 = _Z4uminii _Z4uminii @ 991 
#  991 = _Z5aoranPKc _Z5aoranPKc @ 992 
#  992 = _Z5isHoti _Z5isHoti @ 993 
#  993 = _Z5myobjP8obj_data _Z5myobjP8obj_data @ 994 
#  994 = _Z5nannyP15descriptor_dataPc _Z5nannyP15descriptor_dataPc @ 995 
#  995 = _Z5paintsP9char_dataPKcz _Z5paintsP9char_dataPKcz @ 996 
#  996 = _Z6c_timeli _Z6c_timeli @ 997 
#  997 = _Z6chanceP9char_datas _Z6chanceP9char_datas @ 998 
#  998 = _Z6damageP9char_dataS0_ii _Z6damageP9char_dataS0_ii @ 999 
#  999 = _Z6disarmP9char_dataS0_ _Z6disarmP9char_dataS0_ @ 1000 
#  1000 = _Z6dragonP9char_dataPKc _Z6dragonP9char_dataPKc @ 1001 
#  1001 = _Z6isColdi _Z6isColdi @ 1002 
#  1002 = _Z6isCooli _Z6isCooli @ 1003 
#  1003 = _Z6isWarmi _Z6isWarmi @ 1004 
#  1004 = _Z6mpcopyP13mob_prog_dataS0_ _Z6mpcopyP13mob_prog_dataS0_ @ 1005 
#  1005 = _Z6mpeditP9char_dataP13mob_prog_dataiPKc _Z6mpeditP9char_dataP13mob_prog_dataiPKc @ 1006 
#  1006 = _Z6rpeditP9char_dataP13mob_prog_dataiPc _Z6rpeditP9char_dataP13mob_prog_dataiPc @ 1007 
#  1007 = _Z6urangeiii _Z6urangeiii @ 1008 
#  1008 = _Z7VAMP_ACP9char_data _Z7VAMP_ACP9char_data @ 1009 
#  1009 = _Z7add_banP9char_dataPKcS2_ii _Z7add_banP9char_dataPKcS2_ii @ 1010 
#  1010 = _Z7add_dnsPKcS0_ _Z7add_dnsPKcS0_ @ 1011 
#  1011 = _Z7advatoiPc _Z7advatoiPc @ 1012 
#  1012 = _Z7boot_dbb _Z7boot_dbb @ 1013 
#  1013 = _Z7can_seeP9char_dataS0_ _Z7can_seeP9char_dataS0_ @ 1014 
#  1014 = _Z7do_noteP9char_dataPKcb _Z7do_noteP9char_dataPKcb @ 1015 
#  1015 = _Z7getTempP11WeatherCell _Z7getTempP11WeatherCell @ 1016 
#  1016 = _Z7get_dirPKc _Z7get_dirPKc @ 1017 
#  1017 = _Z7get_expP9char_data _Z7get_expP9char_data @ 1018 
#  1018 = _Z7get_liqPKc _Z7get_liqPKc @ 1019 
#  1019 = _Z7get_mixPKc _Z7get_mixPKc @ 1020 
#  1020 = _Z7get_objP9char_dataP8obj_dataS2_ _Z7get_objP9char_dataP8obj_dataS2_ @ 1021 
#  1021 = _Z7get_tagP9char_dataPci _Z7get_tagP9char_dataPci @ 1022 
#  1022 = _Z7has_keyP9char_datai _Z7has_keyP9char_datai @ 1023 
#  1023 = _Z7init_mmv _Z7init_mmv @ 1024 
#  1024 = _Z7isHumidi _Z7isHumidi @ 1025 
#  1025 = _Z7is_namePKcS0_ _Z7is_namePKcS0_ @ 1026 
#  1026 = _Z7is_safeP9char_dataS0_b _Z7is_safeP9char_dataS0_b @ 1027 
#  1027 = _Z7one_hitP9char_dataS0_i _Z7one_hitP9char_dataS0_i @ 1028 
#  1028 = _Z7progbugPKcP9char_data _Z7progbugPKcP9char_data @ 1029 
#  1029 = _Z7str_cmpPKcS0_ _Z7str_cmpPKcS0_ @ 1030 
#  1030 = _Z7str_dupPKc _Z7str_dupPKc @ 1031 
#  1031 = _Z8SwapHintP9hint_dataS0_ _Z8SwapHintP9hint_dataS0_ @ 1032 
#  1032 = _Z8add_charP9char_data _Z8add_charP9char_data @ 1033 
#  1033 = _Z8add_helpP9help_data _Z8add_helpP9help_data @ 1034 
#  1034 = _Z8add_killP9char_dataS0_ _Z8add_killP9char_dataS0_ @ 1035 
#  1035 = _Z8apply_acP8obj_datai _Z8apply_acP8obj_datai @ 1036 
#  1036 = _Z8boot_logPKcz _Z8boot_logPKcz @ 1037 
#  1037 = _Z8can_dualP9char_data _Z8can_dualP9char_data @ 1038 
#  1038 = _Z8can_postP9char_dataP10board_data _Z8can_postP9char_dataP10board_data @ 1039 
#  1039 = _Z8can_readP9char_dataP10board_data _Z8can_readP9char_dataP10board_data @ 1040 
#  1040 = _Z8colorizePKcP15descriptor_data _Z8colorizePKcP15descriptor_data @ 1041 
#  1041 = _Z8do_morphP9char_dataP10morph_data _Z8do_morphP9char_dataP10morph_data @ 1042 
#  1042 = _Z8do_mptagP9char_dataPKc _Z8do_mptagP9char_dataPKc @ 1043 
#  1043 = _Z8find_objP9char_dataPKcb _Z8find_objP9char_dataPKcb @ 1044 
#  1044 = _Z8fix_charP9char_data _Z8fix_charP9char_data @ 1045 
#  1045 = _Z8free_banP8ban_data _Z8free_banP8ban_data @ 1046 
#  1046 = _Z8free_objP8obj_data _Z8free_objP8obj_data @ 1047 
#  1047 = _Z8gain_expP9char_datai _Z8gain_expP9char_datai @ 1048 
#  1048 = _Z8getWindXP11WeatherCell _Z8getWindXP11WeatherCell @ 1049 
#  1049 = _Z8getWindYP11WeatherCell _Z8getWindYP11WeatherCell @ 1050 
#  1050 = _Z8get_areaPc _Z8get_areaPc @ 1051 
#  1051 = _Z8get_clanPKc _Z8get_clanPKc @ 1052 
#  1052 = _Z8get_costP9char_dataS0_P8obj_datab _Z8get_costP9char_dataS0_P8obj_datab @ 1053 
#  1053 = _Z8get_doorPKc _Z8get_doorPKc @ 1054 
#  1054 = _Z8get_exitP15room_index_datas _Z8get_exitP15room_index_datas @ 1055 
#  1055 = _Z8get_helpP9char_dataPKc _Z8get_helpP9char_dataPKc @ 1056 
#  1056 = _Z8get_hinti _Z8get_hinti @ 1057 
#  1057 = _Z8get_langPKc _Z8get_langPKc @ 1058 
#  1058 = _Z8get_linePcj _Z8get_linePcj @ 1059 
#  1059 = _Z8get_raceP9char_data _Z8get_raceP9char_data @ 1060 
#  1060 = _Z8get_trapP8obj_data _Z8get_trapP8obj_data @ 1061 
#  1061 = _Z8getcolorc _Z8getcolorc @ 1062 
#  1062 = _Z8help_fixPKc _Z8help_fixPKc @ 1063 
#  1063 = _Z8hit_gainP9char_data _Z8hit_gainP9char_data @ 1064 
#  1064 = _Z8in_arenaP9char_data _Z8in_arenaP9char_data @ 1065 
#  1065 = _Z8isChillyi _Z8isChillyi @ 1066 
#  1066 = _Z8isCloudyi _Z8isCloudyi @ 1067 
#  1067 = _Z8isFrostyi _Z8isFrostyi @ 1068 
#  1068 = _Z8isStormyi _Z8isStormyi @ 1069 
#  1069 = _Z8is_name2PKcS0_ _Z8is_name2PKcS0_ @ 1070 
#  1070 = _Z8isavowelc _Z8isavowelc @ 1071 
#  1071 = _Z8load_dnsv _Z8load_dnsv @ 1072 
#  1072 = _Z8look_skyP9char_data _Z8look_skyP9char_data @ 1073 
#  1073 = _Z8mob_fireP9char_dataPKc _Z8mob_fireP9char_dataPKc @ 1074 
#  1074 = _Z8multimebiz _Z8multimebiz @ 1075 
#  1075 = _Z8obj_fallP8obj_datab _Z8obj_fallP8obj_datab @ 1076 
#  1076 = _Z8parsebetiPc _Z8parsebetiPc @ 1077 
#  1077 = _Z8raw_killP9char_dataS0_ _Z8raw_killP9char_dataS0_ @ 1078 
#  1078 = _Z8rd_parseP9char_dataiPc _Z8rd_parseP9char_dataiPc @ 1079 
#  1079 = _Z8read_logP9__sFILE64 _Z8read_logP9__sFILE64 @ 1080 
#  1080 = _Z8rev_exits _Z8rev_exits @ 1081 
#  1081 = _Z8ris_saveP9char_dataii _Z8ris_saveP9char_dataii @ 1082 
#  1082 = _Z8roomdescP9char_data _Z8roomdescP9char_data @ 1083 
#  1083 = _Z8save_dnsv _Z8save_dnsv @ 1084 
#  1084 = _Z8scramblePKci _Z8scramblePKci @ 1085 
#  1085 = _Z8show_mapP9char_dataPc _Z8show_mapP9char_dataPc @ 1086 
#  1086 = _Z8str_freePKc _Z8str_freePKc @ 1087 
#  1087 = _Z8strip_crPKc _Z8strip_crPKc @ 1088 
#  1088 = _Z8strlowerPKc _Z8strlowerPKc @ 1089 
#  1089 = _Z8strupperPKc _Z8strupperPKc @ 1090 
#  1090 = _Z8tag_charP9char_dataP13variable_datai _Z8tag_charP9char_dataP13variable_datai @ 1091 
#  1091 = _Z8teleportP9char_dataii _Z8teleportP9char_dataii @ 1092 
#  1092 = _Z8wear_objP9char_dataP8obj_databs _Z8wear_objP9char_dataP8obj_databs @ 1093 
#  1093 = _Z8wordwrapPcs _Z8wordwrapPcs @ 1094 
#  1094 = _Z9DelOExtraP8obj_dataPKc _Z9DelOExtraP8obj_dataPKc @ 1095 
#  1095 = _Z9DelRExtraP15room_index_dataPKc _Z9DelRExtraP15room_index_dataPKc @ 1096 
#  1096 = _Z9MORPHNAMEP9char_data _Z9MORPHNAMEP9char_data @ 1097 
#  1097 = _Z9RelCreate13relation_typePvS0_ _Z9RelCreate13relation_typePvS0_ @ 1098 
#  1098 = _Z9SetOExtraP8obj_dataPKc _Z9SetOExtraP8obj_dataPKc @ 1099 
#  1099 = _Z9SetRExtraP15room_index_dataPKc _Z9SetRExtraP15room_index_dataPKc @ 1100 
#  1100 = _Z9add_resetP15room_index_dataciiii _Z9add_resetP15room_index_dataciiii @ 1101 
#  1101 = _Z9add_timerP9char_datasiPFvS0_PKcEi _Z9add_timerP9char_datasiPFvS0_PKcEi @ 1102 
#  1102 = _Z9can_charmP9char_data _Z9can_charmP9char_data @ 1103 
#  1103 = _Z9can_layerP9char_dataP8obj_datas _Z9can_layerP9char_dataP8obj_datas @ 1104 
#  1104 = _Z9can_meditP9char_dataP14mob_index_data _Z9can_meditP9char_dataP14mob_index_data @ 1105 
#  1105 = _Z9can_morphP9char_dataP10morph_datab _Z9can_morphP9char_dataP10morph_datab @ 1106 
#  1106 = _Z9can_oeditP9char_dataP14obj_index_data _Z9can_oeditP9char_dataP14obj_index_data @ 1107 
#  1107 = _Z9ch_printfP9char_dataPKcz _Z9ch_printfP9char_dataPKcz @ 1108 
#  1108 = _Z9char_diedP9char_data _Z9char_diedP9char_data @ 1109 
#  1109 = _Z9check_dnsv _Z9check_dnsv @ 1110 
#  1110 = _Z9check_mapPKc _Z9check_mapPKc @ 1111 
#  1111 = _Z9check_posP9char_datas _Z9check_posP9char_datas @ 1112 
#  1112 = _Z9chk_watchsPKcS0_ _Z9chk_watchsPKcS0_ @ 1113 
#  1113 = _Z9clean_mobP14mob_index_data _Z9clean_mobP14mob_index_data @ 1114 
#  1114 = _Z9clean_objP14obj_index_data _Z9clean_objP14obj_index_data @ 1115 
#  1115 = _Z9color_strsP9char_data _Z9color_strsP9char_data @ 1116 
#  1116 = _Z9colorcodePKcPcP15descriptor_dataiPi _Z9colorcodePKcPcP15descriptor_dataiPi @ 1117 
#  1117 = _Z9death_cryP9char_data _Z9death_cryP9char_data @ 1118 
#  1118 = _Z9do_mpflagP9char_dataPKc _Z9do_mpflagP9char_dataPKc @ 1119 
#  1119 = _Z9do_owhereP9char_dataPKc _Z9do_owhereP9char_dataPKc @ 1120 
#  1120 = _Z9do_rpcopyP9char_dataPKc _Z9do_rpcopyP9char_dataPKc @ 1121 
#  1121 = _Z9empty_objP8obj_dataS0_P15room_index_data _Z9empty_objP8obj_dataS0_P15room_index_data @ 1122 
#  1122 = _Z9end_timerP7timeval _Z9end_timerP7timeval @ 1123 
#  1123 = _Z9exit_compPP9exit_dataS1_ _Z9exit_compPP9exit_dataS1_ @ 1124 
#  1124 = _Z9exp_levelP9char_datas _Z9exp_levelP9char_datas @ 1125 
#  1125 = _Z9find_areaPcPb _Z9find_areaPcPb @ 1126 
#  1126 = _Z9find_doorP9char_dataPKcb _Z9find_doorP9char_dataPKcb @ 1127 
#  1127 = _Z9fix_exitsv _Z9fix_exitsv @ 1128 
#  1128 = _Z9fold_areaP9area_dataPKcb _Z9fold_areaP9area_dataPKcb @ 1129 
#  1129 = _Z9fread_banP9__sFILE64i _Z9fread_banP9__sFILE64i @ 1130 
#  1130 = _Z9fread_cnvP9__sFILE64PP9lcnv_dataS3_ _Z9fread_cnvP9__sFILE64PP9lcnv_dataS3_ @ 1131 
#  1131 = _Z9fread_dayP12holiday_dataP9__sFILE64 _Z9fread_dayP12holiday_dataP9__sFILE64 @ 1132 
#  1132 = _Z9fread_dnsP8dns_dataP9__sFILE64 _Z9fread_dnsP8dns_dataP9__sFILE64 @ 1133 
#  1133 = _Z9fread_objP9char_dataP9__sFILE64s _Z9fread_objP9char_dataP9__sFILE64s @ 1134 
#  1134 = _Z9free_bansv _Z9free_bansv @ 1135 
#  1135 = _Z9free_charP9char_data _Z9free_charP9char_data @ 1136 
#  1136 = _Z9free_descP15descriptor_data _Z9free_descP15descriptor_data @ 1137 
#  1137 = _Z9free_gameP15game_board_data _Z9free_gameP15game_board_data @ 1138 
#  1138 = _Z9free_helpP9help_data _Z9free_helpP9help_data @ 1139 
#  1139 = _Z9free_noteP9note_data _Z9free_noteP9note_data @ 1140 
#  1140 = _Z9game_loopv _Z9game_loopv @ 1141 
#  1141 = _Z9getEnergyP11WeatherCell _Z9getEnergyP11WeatherCell @ 1142 
#  1142 = _Z9getPrecipP11WeatherCell _Z9getPrecipP11WeatherCell @ 1143 
#  1143 = _Z9get_aflagPKc _Z9get_aflagPKc @ 1144 
#  1144 = _Z9get_atypePKc _Z9get_atypePKc @ 1145 
#  1145 = _Z9get_boardP8obj_data _Z9get_boardP8obj_data @ 1146 
#  1146 = _Z9get_classP9char_data _Z9get_classP9char_data @ 1147 
#  1147 = _Z9get_colorPKc _Z9get_colorPKc @ 1148 
#  1148 = _Z9get_deityPKc _Z9get_deityPKc @ 1149 
#  1149 = _Z9get_exitsP9char_data _Z9get_exitsP9char_data @ 1150 
#  1150 = _Z9get_morphPKc _Z9get_morphPKc @ 1151 
#  1151 = _Z9get_oflagPKc _Z9get_oflagPKc @ 1152 
#  1152 = _Z9get_otypePKc _Z9get_otypePKc @ 1153 
#  1153 = _Z9get_rflagPKc _Z9get_rflagPKc @ 1154 
#  1154 = _Z9get_sflagPKc _Z9get_sflagPKc @ 1155 
#  1155 = _Z9get_skillPKc _Z9get_skillPKc @ 1156 
#  1156 = _Z9get_ssavePKc _Z9get_ssavePKc @ 1157 
#  1157 = _Z9get_timerP9char_datas _Z9get_timerP9char_datas @ 1158 
#  1158 = _Z9get_trustP9char_data _Z9get_trustP9char_data @ 1159 
#  1159 = _Z9get_wflagPKc _Z9get_wflagPKc @ 1160 
#  1160 = _Z9grab_newsP9news_typePKc _Z9grab_newsP9news_typePKc @ 1161 
#  1161 = _Z9grab_wordPcS_ _Z9grab_wordPcS_ @ 1162 
#  1162 = _Z9hash_dumpi _Z9hash_dumpi @ 1163 
#  1163 = _Z9instaroomP15room_index_datab _Z9instaroomP15room_index_datab @ 1164 
#  1164 = _Z9interpretP9char_dataPKc _Z9interpretP9char_dataPKc @ 1165 
#  1165 = _Z9interpretP9char_dataPc _Z9interpretP9char_dataPc @ 1166 
#  1166 = _Z9isMistingi _Z9isMistingi @ 1167 
#  1167 = _Z9isPouringi _Z9isPouringi @ 1168 
#  1168 = _Z9isRainingi _Z9isRainingi @ 1169 
#  1169 = _Z9isVeryHoti _Z9isVeryHoti @ 1170 
#  1170 = _Z9is_hatingP9char_dataS0_ _Z9is_hatingP9char_dataS0_ @ 1171 
#  1171 = _Z9is_immuneP9char_datas _Z9is_immuneP9char_datas @ 1172 
#  1172 = _Z9is_numberPKc _Z9is_numberPKc @ 1173 
#  1173 = _Z9level_expP9char_datai _Z9level_expP9char_datai @ 1174 
#  1174 = _Z9load_areaP9__sFILE64i _Z9load_areaP9__sFILE64i @ 1175 
#  1175 = _Z9load_hintv _Z9load_hintv @ 1176 
#  1176 = _Z9load_newsv _Z9load_newsv @ 1177 
#  1177 = _Z9make_exitP15room_index_dataS0_s _Z9make_exitP15room_index_dataS0_s @ 1178 
#  1178 = _Z9make_fireP15room_index_datas _Z9make_fireP15room_index_datas @ 1179 
#  1179 = _Z9make_roomiP9area_data _Z9make_roomiP9area_data @ 1180 
#  1180 = _Z9make_trapiiii _Z9make_trapiiii @ 1181 
#  1181 = _Z9mana_gainP9char_data _Z9mana_gainP9char_data @ 1182 
#  1182 = _Z9map_exitsP9char_dataP15room_index_dataiii _Z9map_exitsP9char_dataP15room_index_dataiii @ 1183 
#  1183 = _Z9map_statsP9char_dataPiS1_S1_ _Z9map_statsP9char_dataPiS1_S1_ @ 1184 
#  1184 = _Z9move_charP9char_dataP9exit_datai _Z9move_charP9char_dataP9exit_datai @ 1185 
#  1185 = _Z9move_gainP9char_data _Z9move_gainP9char_data @ 1186 
#  1186 = _Z9multi_hitP9char_dataS0_i _Z9multi_hitP9char_dataS0_i @ 1187 
#  1187 = _Z9num_puncti _Z9num_puncti @ 1188 
#  1188 = _Z9number_mmv _Z9number_mmv @ 1189 
#  1189 = _Z9obj_shortP8obj_data _Z9obj_shortP8obj_data @ 1190 
#  1190 = _Z9prune_dnsv _Z9prune_dnsv @ 1191 
#  1191 = _Z9pullcheckP9char_datai _Z9pullcheckP9char_datai @ 1192 
#  1192 = _Z9read_hintPcP9__sFILE64 _Z9read_hintPcP9__sFILE64 @ 1193 
#  1193 = _Z9read_noteP9__sFILE64 _Z9read_noteP9__sFILE64 @ 1194 
#  1194 = _Z9save_clanP9clan_data _Z9save_clanP9clan_data @ 1195 
#  1195 = _Z9save_newsv _Z9save_newsv @ 1196 
#  1196 = _Z9say_spellP9char_datai _Z9say_spellP9char_datai @ 1197 
#  1197 = _Z9set_alarml _Z9set_alarml @ 1198 
#  1198 = _Z9set_titleP9char_dataPKc _Z9set_titleP9char_dataPKc @ 1199 
#  1199 = _Z9show_bansP9char_datai _Z9show_bansP9char_datai @ 1200 
#  1200 = _Z9show_fileP9char_dataPKc _Z9show_fileP9char_dataPKc @ 1201 
#  1201 = _Z9show_hashi _Z9show_hashi @ 1202 
#  1202 = _Z9show_msspP9char_data _Z9show_msspP9char_data @ 1203 
#  1203 = _Z9sort_areaP9area_datab _Z9sort_areaP9area_datab @ 1204 
#  1204 = _Z9split_objP8obj_datai _Z9split_objP8obj_datai @ 1205 
#  1205 = _Z9str_allocPKc _Z9str_allocPKc @ 1206 
#  1206 = _Z9str_infixPKcS0_ _Z9str_infixPKcS0_ @ 1207 
#  1207 = _Z9towizfilePKc _Z9towizfilePKc @ 1208 
#  1208 = _Z9translateiPKcS0_ _Z9translateiPKcS0_ @ 1209 
#  1209 = _Z9whatColorPcS_ _Z9whatColorPcS_ @ 1210 
#  1210 = _Z9will_fallP9char_datai _Z9will_fallP9char_datai @ 1211 
#  1211 = _ZTI10board_data _ZTI10board_data @ 1212 DATA
#  1212 = _ZTI10char_morph _ZTI10char_morph @ 1213 DATA
#  1213 = _ZTI10class_type _ZTI10class_type @ 1214 DATA
#  1214 = _ZTI10deity_data _ZTI10deity_data @ 1215 DATA
#  1215 = _ZTI10morph_data _ZTI10morph_data @ 1216 DATA
#  1216 = _ZTI10plane_data _ZTI10plane_data @ 1217 DATA
#  1217 = _ZTI10reset_data _ZTI10reset_data @ 1218 DATA
#  1218 = _ZTI10skill_type _ZTI10skill_type @ 1219 DATA
#  1219 = _ZTI10timer_data _ZTI10timer_data @ 1220 DATA
#  1220 = _ZTI10watch_data _ZTI10watch_data @ 1221 DATA
#  1221 = _ZTI10z_stream_s _ZTI10z_stream_s @ 1222 DATA
#  1222 = _ZTI11affect_data _ZTI11affect_data @ 1223 DATA
#  1223 = _ZTI11editor_data _ZTI11editor_data @ 1224 DATA
#  1224 = _ZTI11ignore_data _ZTI11ignore_data @ 1225 DATA
#  1225 = _ZTI11roster_data _ZTI11roster_data @ 1226 DATA
#  1226 = _ZTI11social_type _ZTI11social_type @ 1227 DATA
#  1227 = _ZTI12auction_data _ZTI12auction_data @ 1228 DATA
#  1228 = _ZTI12council_data _ZTI12council_data @ 1229 DATA
#  1229 = _ZTI12holiday_data _ZTI12holiday_data @ 1230 DATA
#  1230 = _ZTI12liquid_table _ZTI12liquid_table @ 1231 DATA
#  1231 = _ZTI12mixture_list _ZTI12mixture_list @ 1232 DATA
#  1232 = _ZTI12mpsleep_data _ZTI12mpsleep_data @ 1233 DATA
#  1233 = _ZTI12project_data _ZTI12project_data @ 1234 DATA
#  1234 = _ZTI12reserve_data _ZTI12reserve_data @ 1235 DATA
#  1235 = _ZTI12smaug_affect _ZTI12smaug_affect @ 1236 DATA
#  1236 = _ZTI12specfun_list _ZTI12specfun_list @ 1237 DATA
#  1237 = _ZTI13act_prog_data _ZTI13act_prog_data @ 1238 DATA
#  1238 = _ZTI13fighting_data _ZTI13fighting_data @ 1239 DATA
#  1239 = _ZTI13immortal_host _ZTI13immortal_host @ 1240 DATA
#  1240 = _ZTI13mob_prog_data _ZTI13mob_prog_data @ 1241 DATA
#  1241 = _ZTI13nuisance_data _ZTI13nuisance_data @ 1242 DATA
#  1242 = _ZTI13renumber_data _ZTI13renumber_data @ 1243 DATA
#  1243 = _ZTI13teleport_data _ZTI13teleport_data @ 1244 DATA
#  1244 = _ZTI13variable_data _ZTI13variable_data @ 1245 DATA
#  1245 = _ZTI14hunt_hate_fear _ZTI14hunt_hate_fear @ 1246 DATA
#  1246 = _ZTI14ipcompare_data _ZTI14ipcompare_data @ 1247 DATA
#  1247 = _ZTI14mob_index_data _ZTI14mob_index_data @ 1248 DATA
#  1248 = _ZTI14obj_index_data _ZTI14obj_index_data @ 1249 DATA
#  1249 = _ZTI14renumber_areas _ZTI14renumber_areas @ 1250 DATA
#  1250 = _ZTI15descriptor_data _ZTI15descriptor_data @ 1251 DATA
#  1251 = _ZTI15game_board_data _ZTI15game_board_data @ 1252 DATA
#  1252 = _ZTI15repairshop_data _ZTI15repairshop_data @ 1253 DATA
#  1253 = _ZTI15room_index_data _ZTI15room_index_data @ 1254 DATA
#  1254 = _ZTI16extra_descr_data _ZTI16extra_descr_data @ 1255 DATA
#  1255 = _ZTI17mob_prog_act_list _ZTI17mob_prog_act_list @ 1256 DATA
#  1256 = _ZTI19extracted_char_data _ZTI19extracted_char_data @ 1257 DATA
#  1257 = _ZTI6wizent _ZTI6wizent @ 1258 DATA
#  1258 = _ZTI7pc_data _ZTI7pc_data @ 1259 DATA
#  1259 = _ZTI7whogr_s _ZTI7whogr_s @ 1260 DATA
#  1260 = _ZTI8ban_data _ZTI8ban_data @ 1261 DATA
#  1261 = _ZTI8cmd_type _ZTI8cmd_type @ 1262 DATA
#  1262 = _ZTI8dns_data _ZTI8dns_data @ 1263 DATA
#  1263 = _ZTI8obj_data _ZTI8obj_data @ 1264 DATA
#  1264 = _ZTI8rel_data _ZTI8rel_data @ 1265 DATA
#  1265 = _ZTI8who_data _ZTI8who_data @ 1266 DATA
#  1266 = _ZTI9area_data _ZTI9area_data @ 1267 DATA
#  1267 = _ZTI9char_data _ZTI9char_data @ 1268 DATA
#  1268 = _ZTI9clan_data _ZTI9clan_data @ 1269 DATA
#  1269 = _ZTI9exit_data _ZTI9exit_data @ 1270 DATA
#  1270 = _ZTI9help_data _ZTI9help_data @ 1271 DATA
#  1271 = _ZTI9hint_data _ZTI9hint_data @ 1272 DATA
#  1272 = _ZTI9lang_data _ZTI9lang_data @ 1273 DATA
#  1273 = _ZTI9lcnv_data _ZTI9lcnv_data @ 1274 DATA
#  1274 = _ZTI9lmsg_data _ZTI9lmsg_data @ 1275 DATA
#  1275 = _ZTI9mccp_data _ZTI9mccp_data @ 1276 DATA
#  1276 = _ZTI9mssp_info _ZTI9mssp_info @ 1277 DATA
#  1277 = _ZTI9news_data _ZTI9news_data @ 1278 DATA
#  1278 = _ZTI9news_type _ZTI9news_type @ 1279 DATA
#  1279 = _ZTI9note_data _ZTI9note_data @ 1280 DATA
#  1280 = _ZTI9race_type _ZTI9race_type @ 1281 DATA
#  1281 = _ZTI9shop_data _ZTI9shop_data @ 1282 DATA
#  1282 = _ZTIP10board_data _ZTIP10board_data @ 1283 DATA
#  1283 = _ZTIP10char_morph _ZTIP10char_morph @ 1284 DATA
#  1284 = _ZTIP10class_type _ZTIP10class_type @ 1285 DATA
#  1285 = _ZTIP10deity_data _ZTIP10deity_data @ 1286 DATA
#  1286 = _ZTIP10morph_data _ZTIP10morph_data @ 1287 DATA
#  1287 = _ZTIP10plane_data _ZTIP10plane_data @ 1288 DATA
#  1288 = _ZTIP10reset_data _ZTIP10reset_data @ 1289 DATA
#  1289 = _ZTIP10skill_type _ZTIP10skill_type @ 1290 DATA
#  1290 = _ZTIP10timer_data _ZTIP10timer_data @ 1291 DATA
#  1291 = _ZTIP10watch_data _ZTIP10watch_data @ 1292 DATA
#  1292 = _ZTIP10z_stream_s _ZTIP10z_stream_s @ 1293 DATA
#  1293 = _ZTIP11affect_data _ZTIP11affect_data @ 1294 DATA
#  1294 = _ZTIP11editor_data _ZTIP11editor_data @ 1295 DATA
#  1295 = _ZTIP11ignore_data _ZTIP11ignore_data @ 1296 DATA
#  1296 = _ZTIP11roster_data _ZTIP11roster_data @ 1297 DATA
#  1297 = _ZTIP11social_type _ZTIP11social_type @ 1298 DATA
#  1298 = _ZTIP12auction_data _ZTIP12auction_data @ 1299 DATA
#  1299 = _ZTIP12council_data _ZTIP12council_data @ 1300 DATA
#  1300 = _ZTIP12holiday_data _ZTIP12holiday_data @ 1301 DATA
#  1301 = _ZTIP12liquid_table _ZTIP12liquid_table @ 1302 DATA
#  1302 = _ZTIP12mixture_list _ZTIP12mixture_list @ 1303 DATA
#  1303 = _ZTIP12mpsleep_data _ZTIP12mpsleep_data @ 1304 DATA
#  1304 = _ZTIP12project_data _ZTIP12project_data @ 1305 DATA
#  1305 = _ZTIP12reserve_data _ZTIP12reserve_data @ 1306 DATA
#  1306 = _ZTIP12smaug_affect _ZTIP12smaug_affect @ 1307 DATA
#  1307 = _ZTIP12specfun_list _ZTIP12specfun_list @ 1308 DATA
#  1308 = _ZTIP13act_prog_data _ZTIP13act_prog_data @ 1309 DATA
#  1309 = _ZTIP13fighting_data _ZTIP13fighting_data @ 1310 DATA
#  1310 = _ZTIP13immortal_host _ZTIP13immortal_host @ 1311 DATA
#  1311 = _ZTIP13mob_prog_data _ZTIP13mob_prog_data @ 1312 DATA
#  1312 = _ZTIP13nuisance_data _ZTIP13nuisance_data @ 1313 DATA
#  1313 = _ZTIP13renumber_data _ZTIP13renumber_data @ 1314 DATA
#  1314 = _ZTIP13teleport_data _ZTIP13teleport_data @ 1315 DATA
#  1315 = _ZTIP13variable_data _ZTIP13variable_data @ 1316 DATA
#  1316 = _ZTIP14hunt_hate_fear _ZTIP14hunt_hate_fear @ 1317 DATA
#  1317 = _ZTIP14ipcompare_data _ZTIP14ipcompare_data @ 1318 DATA
#  1318 = _ZTIP14mob_index_data _ZTIP14mob_index_data @ 1319 DATA
#  1319 = _ZTIP14obj_index_data _ZTIP14obj_index_data @ 1320 DATA
#  1320 = _ZTIP14renumber_areas _ZTIP14renumber_areas @ 1321 DATA
#  1321 = _ZTIP15descriptor_data _ZTIP15descriptor_data @ 1322 DATA
#  1322 = _ZTIP15game_board_data _ZTIP15game_board_data @ 1323 DATA
#  1323 = _ZTIP15repairshop_data _ZTIP15repairshop_data @ 1324 DATA
#  1324 = _ZTIP15room_index_data _ZTIP15room_index_data @ 1325 DATA
#  1325 = _ZTIP16extra_descr_data _ZTIP16extra_descr_data @ 1326 DATA
#  1326 = _ZTIP17mob_prog_act_list _ZTIP17mob_prog_act_list @ 1327 DATA
#  1327 = _ZTIP19extracted_char_data _ZTIP19extracted_char_data @ 1328 DATA
#  1328 = _ZTIP6wizent _ZTIP6wizent @ 1329 DATA
#  1329 = _ZTIP7pc_data _ZTIP7pc_data @ 1330 DATA
#  1330 = _ZTIP7whogr_s _ZTIP7whogr_s @ 1331 DATA
#  1331 = _ZTIP8ban_data _ZTIP8ban_data @ 1332 DATA
#  1332 = _ZTIP8cmd_type _ZTIP8cmd_type @ 1333 DATA
#  1333 = _ZTIP8dns_data _ZTIP8dns_data @ 1334 DATA
#  1334 = _ZTIP8obj_data _ZTIP8obj_data @ 1335 DATA
#  1335 = _ZTIP8rel_data _ZTIP8rel_data @ 1336 DATA
#  1336 = _ZTIP8who_data _ZTIP8who_data @ 1337 DATA
#  1337 = _ZTIP9area_data _ZTIP9area_data @ 1338 DATA
#  1338 = _ZTIP9char_data _ZTIP9char_data @ 1339 DATA
#  1339 = _ZTIP9clan_data _ZTIP9clan_data @ 1340 DATA
#  1340 = _ZTIP9exit_data _ZTIP9exit_data @ 1341 DATA
#  1341 = _ZTIP9help_data _ZTIP9help_data @ 1342 DATA
#  1342 = _ZTIP9hint_data _ZTIP9hint_data @ 1343 DATA
#  1343 = _ZTIP9lang_data _ZTIP9lang_data @ 1344 DATA
#  1344 = _ZTIP9lcnv_data _ZTIP9lcnv_data @ 1345 DATA
#  1345 = _ZTIP9lmsg_data _ZTIP9lmsg_data @ 1346 DATA
#  1346 = _ZTIP9mccp_data _ZTIP9mccp_data @ 1347 DATA
#  1347 = _ZTIP9mssp_info _ZTIP9mssp_info @ 1348 DATA
#  1348 = _ZTIP9news_data _ZTIP9news_data @ 1349 DATA
#  1349 = _ZTIP9news_type _ZTIP9news_type @ 1350 DATA
#  1350 = _ZTIP9note_data _ZTIP9note_data @ 1351 DATA
#  1351 = _ZTIP9race_type _ZTIP9race_type @ 1352 DATA
#  1352 = _ZTIP9shop_data _ZTIP9shop_data @ 1353 DATA
#  1353 = _ZTIPPKc _ZTIPPKc @ 1354 DATA
#  1354 = _ZTIPPc _ZTIPPc @ 1355 DATA
#  1355 = _ZTS10board_data _ZTS10board_data @ 1356 DATA
#  1356 = _ZTS10char_morph _ZTS10char_morph @ 1357 DATA
#  1357 = _ZTS10class_type _ZTS10class_type @ 1358 DATA
#  1358 = _ZTS10deity_data _ZTS10deity_data @ 1359 DATA
#  1359 = _ZTS10morph_data _ZTS10morph_data @ 1360 DATA
#  1360 = _ZTS10plane_data _ZTS10plane_data @ 1361 DATA
#  1361 = _ZTS10reset_data _ZTS10reset_data @ 1362 DATA
#  1362 = _ZTS10skill_type _ZTS10skill_type @ 1363 DATA
#  1363 = _ZTS10timer_data _ZTS10timer_data @ 1364 DATA
#  1364 = _ZTS10watch_data _ZTS10watch_data @ 1365 DATA
#  1365 = _ZTS10z_stream_s _ZTS10z_stream_s @ 1366 DATA
#  1366 = _ZTS11affect_data _ZTS11affect_data @ 1367 DATA
#  1367 = _ZTS11editor_data _ZTS11editor_data @ 1368 DATA
#  1368 = _ZTS11ignore_data _ZTS11ignore_data @ 1369 DATA
#  1369 = _ZTS11roster_data _ZTS11roster_data @ 1370 DATA
#  1370 = _ZTS11social_type _ZTS11social_type @ 1371 DATA
#  1371 = _ZTS12auction_data _ZTS12auction_data @ 1372 DATA
#  1372 = _ZTS12council_data _ZTS12council_data @ 1373 DATA
#  1373 = _ZTS12holiday_data _ZTS12holiday_data @ 1374 DATA
#  1374 = _ZTS12liquid_table _ZTS12liquid_table @ 1375 DATA
#  1375 = _ZTS12mixture_list _ZTS12mixture_list @ 1376 DATA
#  1376 = _ZTS12mpsleep_data _ZTS12mpsleep_data @ 1377 DATA
#  1377 = _ZTS12project_data _ZTS12project_data @ 1378 DATA
#  1378 = _ZTS12reserve_data _ZTS12reserve_data @ 1379 DATA
#  1379 = _ZTS12smaug_affect _ZTS12smaug_affect @ 1380 DATA
#  1380 = _ZTS12specfun_list _ZTS12specfun_list @ 1381 DATA
#  1381 = _ZTS13act_prog_data _ZTS13act_prog_data @ 1382 DATA
#  1382 = _ZTS13fighting_data _ZTS13fighting_data @ 1383 DATA
#  1383 = _ZTS13immortal_host _ZTS13immortal_host @ 1384 DATA
#  1384 = _ZTS13mob_prog_data _ZTS13mob_prog_data @ 1385 DATA
#  1385 = _ZTS13nuisance_data _ZTS13nuisance_data @ 1386 DATA
#  1386 = _ZTS13renumber_data _ZTS13renumber_data @ 1387 DATA
#  1387 = _ZTS13teleport_data _ZTS13teleport_data @ 1388 DATA
#  1388 = _ZTS13variable_data _ZTS13variable_data @ 1389 DATA
#  1389 = _ZTS14hunt_hate_fear _ZTS14hunt_hate_fear @ 1390 DATA
#  1390 = _ZTS14ipcompare_data _ZTS14ipcompare_data @ 1391 DATA
#  1391 = _ZTS14mob_index_data _ZTS14mob_index_data @ 1392 DATA
#  1392 = _ZTS14obj_index_data _ZTS14obj_index_data @ 1393 DATA
#  1393 = _ZTS14renumber_areas _ZTS14renumber_areas @ 1394 DATA
#  1394 = _ZTS15descriptor_data _ZTS15descriptor_data @ 1395 DATA
#  1395 = _ZTS15game_board_data _ZTS15game_board_data @ 1396 DATA
#  1396 = _ZTS15repairshop_data _ZTS15repairshop_data @ 1397 DATA
#  1397 = _ZTS15room_index_data _ZTS15room_index_data @ 1398 DATA
#  1398 = _ZTS16extra_descr_data _ZTS16extra_descr_data @ 1399 DATA
#  1399 = _ZTS17mob_prog_act_list _ZTS17mob_prog_act_list @ 1400 DATA
#  1400 = _ZTS19extracted_char_data _ZTS19extracted_char_data @ 1401 DATA
#  1401 = _ZTS6wizent _ZTS6wizent @ 1402 DATA
#  1402 = _ZTS7pc_data _ZTS7pc_data @ 1403 DATA
#  1403 = _ZTS7whogr_s _ZTS7whogr_s @ 1404 DATA
#  1404 = _ZTS8ban_data _ZTS8ban_data @ 1405 DATA
#  1405 = _ZTS8cmd_type _ZTS8cmd_type @ 1406 DATA
#  1406 = _ZTS8dns_data _ZTS8dns_data @ 1407 DATA
#  1407 = _ZTS8obj_data _ZTS8obj_data @ 1408 DATA
#  1408 = _ZTS8rel_data _ZTS8rel_data @ 1409 DATA
#  1409 = _ZTS8who_data _ZTS8who_data @ 1410 DATA
#  1410 = _ZTS9area_data _ZTS9area_data @ 1411 DATA
#  1411 = _ZTS9char_data _ZTS9char_data @ 1412 DATA
#  1412 = _ZTS9clan_data _ZTS9clan_data @ 1413 DATA
#  1413 = _ZTS9exit_data _ZTS9exit_data @ 1414 DATA
#  1414 = _ZTS9help_data _ZTS9help_data @ 1415 DATA
#  1415 = _ZTS9hint_data _ZTS9hint_data @ 1416 DATA
#  1416 = _ZTS9lang_data _ZTS9lang_data @ 1417 DATA
#  1417 = _ZTS9lcnv_data _ZTS9lcnv_data @ 1418 DATA
#  1418 = _ZTS9lmsg_data _ZTS9lmsg_data @ 1419 DATA
#  1419 = _ZTS9mccp_data _ZTS9mccp_data @ 1420 DATA
#  1420 = _ZTS9mssp_info _ZTS9mssp_info @ 1421 DATA
#  1421 = _ZTS9news_data _ZTS9news_data @ 1422 DATA
#  1422 = _ZTS9news_type _ZTS9news_type @ 1423 DATA
#  1423 = _ZTS9note_data _ZTS9note_data @ 1424 DATA
#  1424 = _ZTS9race_type _ZTS9race_type @ 1425 DATA
#  1425 = _ZTS9shop_data _ZTS9shop_data @ 1426 DATA
#  1426 = _ZTSP10board_data _ZTSP10board_data @ 1427 DATA
#  1427 = _ZTSP10char_morph _ZTSP10char_morph @ 1428 DATA
#  1428 = _ZTSP10class_type _ZTSP10class_type @ 1429 DATA
#  1429 = _ZTSP10deity_data _ZTSP10deity_data @ 1430 DATA
#  1430 = _ZTSP10morph_data _ZTSP10morph_data @ 1431 DATA
#  1431 = _ZTSP10plane_data _ZTSP10plane_data @ 1432 DATA
#  1432 = _ZTSP10reset_data _ZTSP10reset_data @ 1433 DATA
#  1433 = _ZTSP10skill_type _ZTSP10skill_type @ 1434 DATA
#  1434 = _ZTSP10timer_data _ZTSP10timer_data @ 1435 DATA
#  1435 = _ZTSP10watch_data _ZTSP10watch_data @ 1436 DATA
#  1436 = _ZTSP10z_stream_s _ZTSP10z_stream_s @ 1437 DATA
#  1437 = _ZTSP11affect_data _ZTSP11affect_data @ 1438 DATA
#  1438 = _ZTSP11editor_data _ZTSP11editor_data @ 1439 DATA
#  1439 = _ZTSP11ignore_data _ZTSP11ignore_data @ 1440 DATA
#  1440 = _ZTSP11roster_data _ZTSP11roster_data @ 1441 DATA
#  1441 = _ZTSP11social_type _ZTSP11social_type @ 1442 DATA
#  1442 = _ZTSP12auction_data _ZTSP12auction_data @ 1443 DATA
#  1443 = _ZTSP12council_data _ZTSP12council_data @ 1444 DATA
#  1444 = _ZTSP12holiday_data _ZTSP12holiday_data @ 1445 DATA
#  1445 = _ZTSP12liquid_table _ZTSP12liquid_table @ 1446 DATA
#  1446 = _ZTSP12mixture_list _ZTSP12mixture_list @ 1447 DATA
#  1447 = _ZTSP12mpsleep_data _ZTSP12mpsleep_data @ 1448 DATA
#  1448 = _ZTSP12project_data _ZTSP12project_data @ 1449 DATA
#  1449 = _ZTSP12reserve_data _ZTSP12reserve_data @ 1450 DATA
#  1450 = _ZTSP12smaug_affect _ZTSP12smaug_affect @ 1451 DATA
#  1451 = _ZTSP12specfun_list _ZTSP12specfun_list @ 1452 DATA
#  1452 = _ZTSP13act_prog_data _ZTSP13act_prog_data @ 1453 DATA
#  1453 = _ZTSP13fighting_data _ZTSP13fighting_data @ 1454 DATA
#  1454 = _ZTSP13immortal_host _ZTSP13immortal_host @ 1455 DATA
#  1455 = _ZTSP13mob_prog_data _ZTSP13mob_prog_data @ 1456 DATA
#  1456 = _ZTSP13nuisance_data _ZTSP13nuisance_data @ 1457 DATA
#  1457 = _ZTSP13renumber_data _ZTSP13renumber_data @ 1458 DATA
#  1458 = _ZTSP13teleport_data _ZTSP13teleport_data @ 1459 DATA
#  1459 = _ZTSP13variable_data _ZTSP13variable_data @ 1460 DATA
#  1460 = _ZTSP14hunt_hate_fear _ZTSP14hunt_hate_fear @ 1461 DATA
#  1461 = _ZTSP14ipcompare_data _ZTSP14ipcompare_data @ 1462 DATA
#  1462 = _ZTSP14mob_index_data _ZTSP14mob_index_data @ 1463 DATA
#  1463 = _ZTSP14obj_index_data _ZTSP14obj_index_data @ 1464 DATA
#  1464 = _ZTSP14renumber_areas _ZTSP14renumber_areas @ 1465 DATA
#  1465 = _ZTSP15descriptor_data _ZTSP15descriptor_data @ 1466 DATA
#  1466 = _ZTSP15game_board_data _ZTSP15game_board_data @ 1467 DATA
#  1467 = _ZTSP15repairshop_data _ZTSP15repairshop_data @ 1468 DATA
#  1468 = _ZTSP15room_index_data _ZTSP15room_index_data @ 1469 DATA
#  1469 = _ZTSP16extra_descr_data _ZTSP16extra_descr_data @ 1470 DATA
#  1470 = _ZTSP17mob_prog_act_list _ZTSP17mob_prog_act_list @ 1471 DATA
#  1471 = _ZTSP19extracted_char_data _ZTSP19extracted_char_data @ 1472 DATA
#  1472 = _ZTSP6wizent _ZTSP6wizent @ 1473 DATA
#  1473 = _ZTSP7pc_data _ZTSP7pc_data @ 1474 DATA
#  1474 = _ZTSP7whogr_s _ZTSP7whogr_s @ 1475 DATA
#  1475 = _ZTSP8ban_data _ZTSP8ban_data @ 1476 DATA
#  1476 = _ZTSP8cmd_type _ZTSP8cmd_type @ 1477 DATA
#  1477 = _ZTSP8dns_data _ZTSP8dns_data @ 1478 DATA
#  1478 = _ZTSP8obj_data _ZTSP8obj_data @ 1479 DATA
#  1479 = _ZTSP8rel_data _ZTSP8rel_data @ 1480 DATA
#  1480 = _ZTSP8who_data _ZTSP8who_data @ 1481 DATA
#  1481 = _ZTSP9area_data _ZTSP9area_data @ 1482 DATA
#  1482 = _ZTSP9char_data _ZTSP9char_data @ 1483 DATA
#  1483 = _ZTSP9clan_data _ZTSP9clan_data @ 1484 DATA
#  1484 = _ZTSP9exit_data _ZTSP9exit_data @ 1485 DATA
#  1485 = _ZTSP9help_data _ZTSP9help_data @ 1486 DATA
#  1486 = _ZTSP9hint_data _ZTSP9hint_data @ 1487 DATA
#  1487 = _ZTSP9lang_data _ZTSP9lang_data @ 1488 DATA
#  1488 = _ZTSP9lcnv_data _ZTSP9lcnv_data @ 1489 DATA
#  1489 = _ZTSP9lmsg_data _ZTSP9lmsg_data @ 1490 DATA
#  1490 = _ZTSP9mccp_data _ZTSP9mccp_data @ 1491 DATA
#  1491 = _ZTSP9mssp_info _ZTSP9mssp_info @ 1492 DATA
#  1492 = _ZTSP9news_data _ZTSP9news_data @ 1493 DATA
#  1493 = _ZTSP9news_type _ZTSP9news_type @ 1494 DATA
#  1494 = _ZTSP9note_data _ZTSP9note_data @ 1495 DATA
#  1495 = _ZTSP9race_type _ZTSP9race_type @ 1496 DATA
#  1496 = _ZTSP9shop_data _ZTSP9shop_data @ 1497 DATA
#  1497 = _ZTSPPKc _ZTSPPKc @ 1498 DATA
#  1498 = _ZTSPPc _ZTSPPc @ 1499 DATA
#  1499 = a_flags a_flags @ 1500 DATA
#  1500 = a_types a_types @ 1501 DATA
#  1501 = act_flags act_flags @ 1502 DATA
#  1502 = alarm_section alarm_section @ 1503 DATA
#  1503 = area_flags area_flags @ 1504 DATA
#  1504 = attack_flags attack_flags @ 1505 DATA
#  1505 = attack_table attack_table @ 1506 DATA
#  1506 = auction auction @ 1507 DATA
#  1507 = big_pieces big_pieces @ 1508 DATA
#  1508 = boot_time boot_time @ 1509 DATA
#  1509 = cha_app cha_app @ 1510 DATA
#  1510 = child_exit_status child_exit_status @ 1511 DATA
#  1511 = class_table class_table @ 1512 DATA
#  1512 = cmd_flag_buf cmd_flag_buf @ 1513 DATA
#  1513 = cmd_flags cmd_flags @ 1514 DATA
#  1514 = command_hash command_hash @ 1515 DATA
#  1515 = con_app con_app @ 1516 DATA
#  1516 = control control @ 1517 DATA
#  1517 = corpse_descs corpse_descs @ 1518 DATA
#  1518 = cur_char cur_char @ 1519 DATA
#  1519 = cur_char_died cur_char_died @ 1520 DATA
#  1520 = cur_obj cur_obj @ 1521 DATA
#  1521 = cur_obj_extracted cur_obj_extracted @ 1522 DATA
#  1522 = cur_obj_serial cur_obj_serial @ 1523 DATA
#  1523 = cur_qchars cur_qchars @ 1524 DATA
#  1524 = cur_qobjs cur_qobjs @ 1525 DATA
#  1525 = cur_room cur_room @ 1526 DATA
#  1526 = current_mpsleep current_mpsleep @ 1527 DATA
#  1527 = current_time current_time @ 1528 DATA
#  1528 = d_next d_next @ 1529 DATA
#  1529 = day_name day_name @ 1530 DATA
#  1530 = default_set default_set @ 1531 DATA
#  1531 = defense_flags defense_flags @ 1532 DATA
#  1532 = dex_app dex_app @ 1533 DATA
#  1533 = dir_name dir_name @ 1534 DATA
#  1534 = disease_table disease_table @ 1535 DATA
#  1535 = dmap dmap @ 1536 DATA
#  1536 = do_aassign do_aassign @ 1537 
#  1537 = do_add_imm_host do_add_imm_host @ 1538 
#  1538 = do_advance do_advance @ 1539 
#  1539 = do_affected do_affected @ 1540 
#  1540 = do_afk do_afk @ 1541 
#  1541 = do_aid do_aid @ 1542 
#  1542 = do_alinks do_alinks @ 1543 
#  1543 = do_allow do_allow @ 1544 
#  1544 = do_ansi do_ansi @ 1545 
#  1545 = do_answer do_answer @ 1546 
#  1546 = do_apply do_apply @ 1547 
#  1547 = do_appraise do_appraise @ 1548 
#  1548 = do_areas do_areas @ 1549 
#  1549 = do_aset do_aset @ 1550 
#  1550 = do_ask do_ask @ 1551 
#  1551 = do_astat do_astat @ 1552 
#  1552 = do_at do_at @ 1553 
#  1553 = do_atobj do_atobj @ 1554 
#  1554 = do_auction do_auction @ 1555 
#  1555 = do_authorize do_authorize @ 1556 
#  1556 = do_avtalk do_avtalk @ 1557 
#  1557 = do_backstab do_backstab @ 1558 
#  1558 = do_balzhur do_balzhur @ 1559 
#  1559 = do_bamfin do_bamfin @ 1560 
#  1560 = do_bamfout do_bamfout @ 1561 
#  1561 = do_ban do_ban @ 1562 
#  1562 = do_bash do_bash @ 1563 
#  1563 = do_bashdoor do_bashdoor @ 1564 
#  1564 = do_berserk do_berserk @ 1565 
#  1565 = do_bestow do_bestow @ 1566 
#  1566 = do_bestowarea do_bestowarea @ 1567 
#  1567 = do_bio do_bio @ 1568 
#  1568 = do_bite do_bite @ 1569 
#  1569 = do_bloodlet do_bloodlet @ 1570 
#  1570 = do_boards do_boards @ 1571 
#  1571 = do_bodybag do_bodybag @ 1572 
#  1572 = do_bolt do_bolt @ 1573 
#  1573 = do_brandish do_brandish @ 1574 
#  1574 = do_brew do_brew @ 1575 
#  1575 = do_broach do_broach @ 1576 
#  1576 = do_bset do_bset @ 1577 
#  1577 = do_bstat do_bstat @ 1578 
#  1578 = do_bug do_bug @ 1579 
#  1579 = do_bury do_bury @ 1580 
#  1580 = do_buy do_buy @ 1581 
#  1581 = do_cache do_cache @ 1582 
#  1582 = do_cast do_cast @ 1583 
#  1583 = do_cedit do_cedit @ 1584 
#  1584 = do_channels do_channels @ 1585 
#  1585 = do_chat do_chat @ 1586 
#  1586 = do_check_vnums do_check_vnums @ 1587 
#  1587 = do_chess do_chess @ 1588 
#  1588 = do_circle do_circle @ 1589 
#  1589 = do_clans do_clans @ 1590 
#  1590 = do_clantalk do_clantalk @ 1591 
#  1591 = do_claw do_claw @ 1592 
#  1592 = do_climb do_climb @ 1593 
#  1593 = do_close do_close @ 1594 
#  1594 = do_cmdtable do_cmdtable @ 1595 
#  1595 = do_color do_color @ 1596 
#  1596 = do_commands do_commands @ 1597 
#  1597 = do_comment do_comment @ 1598 
#  1598 = do_compare do_compare @ 1599 
#  1599 = do_config do_config @ 1600 
#  1600 = do_consider do_consider @ 1601 
#  1601 = do_cook do_cook @ 1602 
#  1602 = do_council_induct do_council_induct @ 1603 
#  1603 = do_council_outcast do_council_outcast @ 1604 
#  1604 = do_councils do_councils @ 1605 
#  1605 = do_counciltalk do_counciltalk @ 1606 
#  1606 = do_credits do_credits @ 1607 
#  1607 = do_cset do_cset @ 1608 
#  1608 = do_deities do_deities @ 1609 
#  1609 = do_delay do_delay @ 1610 
#  1610 = do_deny do_deny @ 1611 
#  1611 = do_description do_description @ 1612 
#  1612 = do_destro do_destro @ 1613 
#  1613 = do_destroy do_destroy @ 1614 
#  1614 = do_detrap do_detrap @ 1615 
#  1615 = do_devote do_devote @ 1616 
#  1616 = do_dig do_dig @ 1617 
#  1617 = do_disarm do_disarm @ 1618 
#  1618 = do_disconnect do_disconnect @ 1619 
#  1619 = do_dismiss do_dismiss @ 1620 
#  1620 = do_dismount do_dismount @ 1621 
#  1621 = do_dmesg do_dmesg @ 1622 
#  1622 = do_dnd do_dnd @ 1623 
#  1623 = do_down do_down @ 1624 
#  1624 = do_drag do_drag @ 1625 
#  1625 = do_drink do_drink @ 1626 
#  1626 = do_drop do_drop @ 1627 
#  1627 = do_east do_east @ 1628 
#  1628 = do_eat do_eat @ 1629 
#  1629 = do_ech do_ech @ 1630 
#  1630 = do_echo do_echo @ 1631 
#  1631 = do_editnews do_editnews @ 1632 
#  1632 = do_elevate do_elevate @ 1633 
#  1633 = do_emote do_emote @ 1634 
#  1634 = do_empty do_empty @ 1635 
#  1635 = do_enter do_enter @ 1636 
#  1636 = do_equipment do_equipment @ 1637 
#  1637 = do_examine do_examine @ 1638 
#  1638 = do_exits do_exits @ 1639 
#  1639 = do_feed do_feed @ 1640 
#  1640 = do_fill do_fill @ 1641 
#  1641 = do_findexit do_findexit @ 1642 
#  1642 = do_findnote do_findnote @ 1643 
#  1643 = do_fire do_fire @ 1644 
#  1644 = do_fixchar do_fixchar @ 1645 
#  1645 = do_fixed do_fixed @ 1646 
#  1646 = do_flee do_flee @ 1647 
#  1647 = do_foldarea do_foldarea @ 1648 
#  1648 = do_follow do_follow @ 1649 
#  1649 = do_for do_for @ 1650 
#  1650 = do_force do_force @ 1651 
#  1651 = do_forceclose do_forceclose @ 1652 
#  1652 = do_form_password do_form_password @ 1653 
#  1653 = do_fprompt do_fprompt @ 1654 
#  1654 = do_fquit do_fquit @ 1655 
#  1655 = do_freeze do_freeze @ 1656 
#  1656 = do_fshow do_fshow @ 1657 
#  1657 = do_get do_get @ 1658 
#  1658 = do_gfighting do_gfighting @ 1659 
#  1659 = do_give do_give @ 1660 
#  1660 = do_glance do_glance @ 1661 
#  1661 = do_gold do_gold @ 1662 
#  1662 = do_goto do_goto @ 1663 
#  1663 = do_gouge do_gouge @ 1664 
#  1664 = do_group do_group @ 1665 
#  1665 = do_gtell do_gtell @ 1666 
#  1666 = do_guilds do_guilds @ 1667 
#  1667 = do_guildtalk do_guildtalk @ 1668 
#  1668 = do_gwhere do_gwhere @ 1669 
#  1669 = do_hedit do_hedit @ 1670 
#  1670 = do_hell do_hell @ 1671 
#  1671 = do_help do_help @ 1672 
#  1672 = do_hide do_hide @ 1673 
#  1673 = do_hintedit do_hintedit @ 1674 
#  1674 = do_hitall do_hitall @ 1675 
#  1675 = do_hl do_hl @ 1676 
#  1676 = do_hlist do_hlist @ 1677 
#  1677 = do_holidays do_holidays @ 1678 
#  1678 = do_holylight do_holylight @ 1679 
#  1679 = do_homepage do_homepage @ 1680 
#  1680 = do_hotboot do_hotboot @ 1681 
#  1681 = do_hset do_hset @ 1682 
#  1682 = do_ide do_ide @ 1683 
#  1683 = do_idea do_idea @ 1684 
#  1684 = do_ignore do_ignore @ 1685 
#  1685 = do_imm_morph do_imm_morph @ 1686 
#  1686 = do_imm_unmorph do_imm_unmorph @ 1687 
#  1687 = do_immortalize do_immortalize @ 1688 
#  1688 = do_immtalk do_immtalk @ 1689 
#  1689 = do_induct do_induct @ 1690 
#  1690 = do_installarea do_installarea @ 1691 
#  1691 = do_instaroom do_instaroom @ 1692 
#  1692 = do_instazone do_instazone @ 1693 
#  1693 = do_inventory do_inventory @ 1694 
#  1694 = do_invis do_invis @ 1695 
#  1695 = do_ipcompare do_ipcompare @ 1696 
#  1696 = do_khistory do_khistory @ 1697 
#  1697 = do_kick do_kick @ 1698 
#  1698 = do_kill do_kill @ 1699 
#  1699 = do_languages do_languages @ 1700 
#  1700 = do_last do_last @ 1701 
#  1701 = do_laws do_laws @ 1702 
#  1702 = do_leave do_leave @ 1703 
#  1703 = do_level do_level @ 1704 
#  1704 = do_light do_light @ 1705 
#  1705 = do_list do_list @ 1706 
#  1706 = do_litterbug do_litterbug @ 1707 
#  1707 = do_loadarea do_loadarea @ 1708 
#  1708 = do_loadup do_loadup @ 1709 
#  1709 = do_lock do_lock @ 1710 
#  1710 = do_log do_log @ 1711 
#  1711 = do_look do_look @ 1712 
#  1712 = do_low_purge do_low_purge @ 1713 
#  1713 = do_mailroom do_mailroom @ 1714 
#  1714 = do_make do_make @ 1715 
#  1715 = do_makeboard do_makeboard @ 1716 
#  1716 = do_makeclan do_makeclan @ 1717 
#  1717 = do_makecouncil do_makecouncil @ 1718 
#  1718 = do_makedeity do_makedeity @ 1719 
#  1719 = do_makerepair do_makerepair @ 1720 
#  1720 = do_makeshop do_makeshop @ 1721 
#  1721 = do_makewizlist do_makewizlist @ 1722 
#  1722 = do_mapout do_mapout @ 1723 
#  1723 = do_mcreate do_mcreate @ 1724 
#  1724 = do_mdelete do_mdelete @ 1725 
#  1725 = do_memory do_memory @ 1726 
#  1726 = do_mfind do_mfind @ 1727 
#  1727 = do_minvoke do_minvoke @ 1728 
#  1728 = do_mistwalk do_mistwalk @ 1729 
#  1729 = do_mix do_mix @ 1730 
#  1730 = do_mlist do_mlist @ 1731 
#  1731 = do_morphcreate do_morphcreate @ 1732 
#  1732 = do_morphdestroy do_morphdestroy @ 1733 
#  1733 = do_morphlist do_morphlist @ 1734 
#  1734 = do_morphset do_morphset @ 1735 
#  1735 = do_morphstat do_morphstat @ 1736 
#  1736 = do_mortalize do_mortalize @ 1737 
#  1737 = do_mount do_mount @ 1738 
#  1738 = do_mp_close_passage do_mp_close_passage @ 1739 
#  1739 = do_mp_damage do_mp_damage @ 1740 
#  1740 = do_mp_deposit do_mp_deposit @ 1741 
#  1741 = do_mp_fill_in do_mp_fill_in @ 1742 
#  1742 = do_mp_log do_mp_log @ 1743 
#  1743 = do_mp_open_passage do_mp_open_passage @ 1744 
#  1744 = do_mp_practice do_mp_practice @ 1745 
#  1745 = do_mp_restore do_mp_restore @ 1746 
#  1746 = do_mp_slay do_mp_slay @ 1747 
#  1747 = do_mp_withdraw do_mp_withdraw @ 1748 
#  1748 = do_mpadvance do_mpadvance @ 1749 
#  1749 = do_mpapply do_mpapply @ 1750 
#  1750 = do_mpapplyb do_mpapplyb @ 1751 
#  1751 = do_mpasound do_mpasound @ 1752 
#  1752 = do_mpasupress do_mpasupress @ 1753 
#  1753 = do_mpat do_mpat @ 1754 
#  1754 = do_mpbodybag do_mpbodybag @ 1755 
#  1755 = do_mpcopy do_mpcopy @ 1756 
#  1756 = do_mpdelay do_mpdelay @ 1757 
#  1757 = do_mpdream do_mpdream @ 1758 
#  1758 = do_mpecho do_mpecho @ 1759 
#  1759 = do_mpechoaround do_mpechoaround @ 1760 
#  1760 = do_mpechoat do_mpechoat @ 1761 
#  1761 = do_mpechozone do_mpechozone @ 1762 
#  1762 = do_mpedit do_mpedit @ 1763 
#  1763 = do_mpfavor do_mpfavor @ 1764 
#  1764 = do_mpfear do_mpfear @ 1765 
#  1765 = do_mpforce do_mpforce @ 1766 
#  1766 = do_mpgoto do_mpgoto @ 1767 
#  1767 = do_mphate do_mphate @ 1768 
#  1768 = do_mphunt do_mphunt @ 1769 
#  1769 = do_mpinvis do_mpinvis @ 1770 
#  1770 = do_mpjunk do_mpjunk @ 1771 
#  1771 = do_mpkill do_mpkill @ 1772 
#  1772 = do_mpmload do_mpmload @ 1773 
#  1773 = do_mpmorph do_mpmorph @ 1774 
#  1774 = do_mpmset do_mpmset @ 1775 
#  1775 = do_mpmusic do_mpmusic @ 1776 
#  1776 = do_mpmusicaround do_mpmusicaround @ 1777 
#  1777 = do_mpmusicat do_mpmusicat @ 1778 
#  1778 = do_mpnothing do_mpnothing @ 1779 
#  1779 = do_mpnuisance do_mpnuisance @ 1780 
#  1780 = do_mpoload do_mpoload @ 1781 
#  1781 = do_mpoowner do_mpoowner @ 1782 
#  1782 = do_mposet do_mposet @ 1783 
#  1783 = do_mppardon do_mppardon @ 1784 
#  1784 = do_mppeace do_mppeace @ 1785 
#  1785 = do_mppkset do_mppkset @ 1786 
#  1786 = do_mppurge do_mppurge @ 1787 
#  1787 = do_mpscatter do_mpscatter @ 1788 
#  1788 = do_mpsound do_mpsound @ 1789 
#  1789 = do_mpsoundaround do_mpsoundaround @ 1790 
#  1790 = do_mpsoundat do_mpsoundat @ 1791 
#  1791 = do_mpstat do_mpstat @ 1792 
#  1792 = do_mptransfer do_mptransfer @ 1793 
#  1793 = do_mpunmorph do_mpunmorph @ 1794 
#  1794 = do_mpunnuisance do_mpunnuisance @ 1795 
#  1795 = do_mset do_mset @ 1796 
#  1796 = do_mstat do_mstat @ 1797 
#  1797 = do_murde do_murde @ 1798 
#  1798 = do_murder do_murder @ 1799 
#  1799 = do_muse do_muse @ 1800 
#  1800 = do_music do_music @ 1801 
#  1801 = do_mwhere do_mwhere @ 1802 
#  1802 = do_name do_name @ 1803 
#  1803 = do_newbiechat do_newbiechat @ 1804 
#  1804 = do_newbieset do_newbieset @ 1805 
#  1805 = do_newzones do_newzones @ 1806 
#  1806 = do_noemote do_noemote @ 1807 
#  1807 = do_noresolve do_noresolve @ 1808 
#  1808 = do_north do_north @ 1809 
#  1809 = do_northeast do_northeast @ 1810 
#  1810 = do_northwest do_northwest @ 1811 
#  1811 = do_notell do_notell @ 1812 
#  1812 = do_noteroom do_noteroom @ 1813 
#  1813 = do_notitle do_notitle @ 1814 
#  1814 = do_nuisance do_nuisance @ 1815 
#  1815 = do_oclaim do_oclaim @ 1816 
#  1816 = do_ocreate do_ocreate @ 1817 
#  1817 = do_odelete do_odelete @ 1818 
#  1818 = do_ofind do_ofind @ 1819 
#  1819 = do_oinvoke do_oinvoke @ 1820 
#  1820 = do_olist do_olist @ 1821 
#  1821 = do_oowner do_oowner @ 1822 
#  1822 = do_opcopy do_opcopy @ 1823 
#  1823 = do_opedit do_opedit @ 1824 
#  1824 = do_open do_open @ 1825 
#  1825 = do_opstat do_opstat @ 1826 
#  1826 = do_order do_order @ 1827 
#  1827 = do_orders do_orders @ 1828 
#  1828 = do_ordertalk do_ordertalk @ 1829 
#  1829 = do_oset do_oset @ 1830 
#  1830 = do_ostat do_ostat @ 1831 
#  1831 = do_ot do_ot @ 1832 
#  1832 = do_outcast do_outcast @ 1833 
#  1833 = do_pager do_pager @ 1834 
#  1834 = do_pardon do_pardon @ 1835 
#  1835 = do_password do_password @ 1836 
#  1836 = do_pcrename do_pcrename @ 1837 
#  1837 = do_peace do_peace @ 1838 
#  1838 = do_pick do_pick @ 1839 
#  1839 = do_plist do_plist @ 1840 
#  1840 = do_poison_weapon do_poison_weapon @ 1841 
#  1841 = do_practice do_practice @ 1842 
#  1842 = do_project do_project @ 1843 
#  1843 = do_prompt do_prompt @ 1844 
#  1844 = do_pset do_pset @ 1845 
#  1845 = do_pstat do_pstat @ 1846 
#  1846 = do_pull do_pull @ 1847 
#  1847 = do_punch do_punch @ 1848 
#  1848 = do_purge do_purge @ 1849 
#  1849 = do_push do_push @ 1850 
#  1850 = do_put do_put @ 1851 
#  1851 = do_qpset do_qpset @ 1852 
#  1852 = do_qpstat do_qpstat @ 1853 
#  1853 = do_quaff do_quaff @ 1854 
#  1854 = do_quest do_quest @ 1855 
#  1855 = do_qui do_qui @ 1856 
#  1856 = do_quit do_quit @ 1857 
#  1857 = do_racetalk do_racetalk @ 1858 
#  1858 = do_rank do_rank @ 1859 
#  1859 = do_rap do_rap @ 1860 
#  1860 = do_rat do_rat @ 1861 
#  1861 = do_rdelete do_rdelete @ 1862 
#  1862 = do_rdig do_rdig @ 1863 
#  1863 = do_reboo do_reboo @ 1864 
#  1864 = do_reboot do_reboot @ 1865 
#  1865 = do_recall do_recall @ 1866 
#  1866 = do_recho do_recho @ 1867 
#  1867 = do_recite do_recite @ 1868 
#  1868 = do_redit do_redit @ 1869 
#  1869 = do_regoto do_regoto @ 1870 
#  1870 = do_remains do_remains @ 1871 
#  1871 = do_remove do_remove @ 1872 
#  1872 = do_rent do_rent @ 1873 
#  1873 = do_renumber do_renumber @ 1874 
#  1874 = do_repair do_repair @ 1875 
#  1875 = do_repairset do_repairset @ 1876 
#  1876 = do_repairshops do_repairshops @ 1877 
#  1877 = do_repairstat do_repairstat @ 1878 
#  1878 = do_repeat do_repeat @ 1879 
#  1879 = do_reply do_reply @ 1880 
#  1880 = do_report do_report @ 1881 
#  1881 = do_rescue do_rescue @ 1882 
#  1882 = do_reserve do_reserve @ 1883 
#  1883 = do_reset do_reset @ 1884 
#  1884 = do_rest do_rest @ 1885 
#  1885 = do_restore do_restore @ 1886 
#  1886 = do_restoretime do_restoretime @ 1887 
#  1887 = do_restrict do_restrict @ 1888 
#  1888 = do_retell do_retell @ 1889 
#  1889 = do_retire do_retire @ 1890 
#  1890 = do_retran do_retran @ 1891 
#  1891 = do_return do_return @ 1892 
#  1892 = do_revert do_revert @ 1893 
#  1893 = do_rgrid do_rgrid @ 1894 
#  1894 = do_rip do_rip @ 1895 
#  1895 = do_rlist do_rlist @ 1896 
#  1896 = do_rolldie do_rolldie @ 1897 
#  1897 = do_roster do_roster @ 1898 
#  1898 = do_rpedit do_rpedit @ 1899 
#  1899 = do_rpstat do_rpstat @ 1900 
#  1900 = do_rstat do_rstat @ 1901 
#  1901 = do_sacrifice do_sacrifice @ 1902 
#  1902 = do_save do_save @ 1903 
#  1903 = do_savearea do_savearea @ 1904 
#  1904 = do_saveholiday do_saveholiday @ 1905 
#  1905 = do_say do_say @ 1906 
#  1906 = do_scan do_scan @ 1907 
#  1907 = do_scatter do_scatter @ 1908 
#  1908 = do_score do_score @ 1909 
#  1909 = do_scribe do_scribe @ 1910 
#  1910 = do_search do_search @ 1911 
#  1911 = do_sedit do_sedit @ 1912 
#  1912 = do_sell do_sell @ 1913 
#  1913 = do_set_boot_time do_set_boot_time @ 1914 
#  1914 = do_setclan do_setclan @ 1915 
#  1915 = do_setclass do_setclass @ 1916 
#  1916 = do_setcouncil do_setcouncil @ 1917 
#  1917 = do_setdeity do_setdeity @ 1918 
#  1918 = do_setholiday do_setholiday @ 1919 
#  1919 = do_setliquid do_setliquid @ 1920 
#  1920 = do_setmixture do_setmixture @ 1921 
#  1921 = do_setmssp do_setmssp @ 1922 
#  1922 = do_setrace do_setrace @ 1923 
#  1923 = do_setweather do_setweather @ 1924 
#  1924 = do_shops do_shops @ 1925 
#  1925 = do_shopset do_shopset @ 1926 
#  1926 = do_shopstat do_shopstat @ 1927 
#  1927 = do_shout do_shout @ 1928 
#  1928 = do_shove do_shove @ 1929 
#  1929 = do_showclan do_showclan @ 1930 
#  1930 = do_showclass do_showclass @ 1931 
#  1931 = do_showcouncil do_showcouncil @ 1932 
#  1932 = do_showdeity do_showdeity @ 1933 
#  1933 = do_showliquid do_showliquid @ 1934 
#  1934 = do_showmixture do_showmixture @ 1935 
#  1935 = do_showrace do_showrace @ 1936 
#  1936 = do_showweather do_showweather @ 1937 
#  1937 = do_shutdow do_shutdow @ 1938 
#  1938 = do_shutdown do_shutdown @ 1939 
#  1939 = do_silence do_silence @ 1940 
#  1940 = do_sit do_sit @ 1941 
#  1941 = do_skin do_skin @ 1942 
#  1942 = do_sla do_sla @ 1943 
#  1943 = do_slay do_slay @ 1944 
#  1944 = do_sleep do_sleep @ 1945 
#  1945 = do_slice do_slice @ 1946 
#  1946 = do_slist do_slist @ 1947 
#  1947 = do_slookup do_slookup @ 1948 
#  1948 = do_smoke do_smoke @ 1949 
#  1949 = do_sneak do_sneak @ 1950 
#  1950 = do_snoop do_snoop @ 1951 
#  1951 = do_sober do_sober @ 1952 
#  1952 = do_socials do_socials @ 1953 
#  1953 = do_south do_south @ 1954 
#  1954 = do_southeast do_southeast @ 1955 
#  1955 = do_southwest do_southwest @ 1956 
#  1956 = do_speak do_speak @ 1957 
#  1957 = do_split do_split @ 1958 
#  1958 = do_sset do_sset @ 1959 
#  1959 = do_stand do_stand @ 1960 
#  1960 = do_stat do_stat @ 1961 
#  1961 = do_statreport do_statreport @ 1962 
#  1962 = do_statshield do_statshield @ 1963 
#  1963 = do_steal do_steal @ 1964 
#  1964 = do_sting do_sting @ 1965 
#  1965 = do_strew do_strew @ 1966 
#  1966 = do_strip do_strip @ 1967 
#  1967 = do_stun do_stun @ 1968 
#  1968 = do_style do_style @ 1969 
#  1969 = do_supplicate do_supplicate @ 1970 
#  1970 = do_switch do_switch @ 1971 
#  1971 = do_tail do_tail @ 1972 
#  1972 = do_tamp do_tamp @ 1973 
#  1973 = do_tell do_tell @ 1974 
#  1974 = do_think do_think @ 1975 
#  1975 = do_time do_time @ 1976 
#  1976 = do_timecmd do_timecmd @ 1977 
#  1977 = do_timezone do_timezone @ 1978 
#  1978 = do_title do_title @ 1979 
#  1979 = do_track do_track @ 1980 
#  1980 = do_traffic do_traffic @ 1981 
#  1981 = do_transfer do_transfer @ 1982 
#  1982 = do_trust do_trust @ 1983 
#  1983 = do_typo do_typo @ 1984 
#  1984 = do_unbolt do_unbolt @ 1985 
#  1985 = do_unfoldarea do_unfoldarea @ 1986 
#  1986 = do_unhell do_unhell @ 1987 
#  1987 = do_unlock do_unlock @ 1988 
#  1988 = do_unnuisance do_unnuisance @ 1989 
#  1989 = do_unsilence do_unsilence @ 1990 
#  1990 = do_up do_up @ 1991 
#  1991 = do_users do_users @ 1992 
#  1992 = do_value do_value @ 1993 
#  1993 = do_vassign do_vassign @ 1994 
#  1994 = do_version do_version @ 1995 
#  1995 = do_victories do_victories @ 1996 
#  1996 = do_visible do_visible @ 1997 
#  1997 = do_vnums do_vnums @ 1998 
#  1998 = do_vsearch do_vsearch @ 1999 
#  1999 = do_vstat do_vstat @ 2000 
#  2000 = do_wake do_wake @ 2001 
#  2001 = do_warn do_warn @ 2002 
#  2002 = do_wartalk do_wartalk @ 2003 
#  2003 = do_watch do_watch @ 2004 
#  2004 = do_wear do_wear @ 2005 
#  2005 = do_weather do_weather @ 2006 
#  2006 = do_west do_west @ 2007 
#  2007 = do_where do_where @ 2008 
#  2008 = do_whisper do_whisper @ 2009 
#  2009 = do_who do_who @ 2010 
#  2010 = do_whois do_whois @ 2011 
#  2011 = do_wimpy do_wimpy @ 2012 
#  2012 = do_wizhelp do_wizhelp @ 2013 
#  2013 = do_wizlist do_wizlist @ 2014 
#  2014 = do_wizlock do_wizlock @ 2015 
#  2015 = do_worth do_worth @ 2016 
#  2016 = do_yell do_yell @ 2017 
#  2017 = do_zap do_zap @ 2018 
#  2018 = do_zones do_zones @ 2019 
#  2019 = ex_flags ex_flags @ 2020 DATA
#  2020 = ex_pair ex_pair @ 2021 DATA
#  2021 = ex_pearth ex_pearth @ 2022 DATA
#  2022 = ex_pfire ex_pfire @ 2023 DATA
#  2023 = ex_pmisc ex_pmisc @ 2024 DATA
#  2024 = ex_pwater ex_pwater @ 2025 DATA
#  2025 = exc_set exc_set @ 2026 DATA
#  2026 = extracted_char_queue extracted_char_queue @ 2027 DATA
#  2027 = extracted_obj_queue extracted_obj_queue @ 2028 DATA
#  2028 = fBootDb fBootDb @ 2029 DATA
#  2029 = fLogAll fLogAll @ 2030 DATA
#  2030 = falling falling @ 2031 DATA
#  2031 = file_ver file_ver @ 2032 DATA
#  2032 = first_area first_area @ 2033 DATA
#  2033 = first_area_name first_area_name @ 2034 DATA
#  2034 = first_asort first_asort @ 2035 DATA
#  2035 = first_ban first_ban @ 2036 DATA
#  2036 = first_ban_class first_ban_class @ 2037 DATA
#  2037 = first_ban_race first_ban_race @ 2038 DATA
#  2038 = first_board first_board @ 2039 DATA
#  2039 = first_bsort first_bsort @ 2040 DATA
#  2040 = first_build first_build @ 2041 DATA
#  2041 = first_cache first_cache @ 2042 DATA
#  2042 = first_char first_char @ 2043 DATA
#  2043 = first_clan first_clan @ 2044 DATA
#  2044 = first_council first_council @ 2045 DATA
#  2045 = first_deity first_deity @ 2046 DATA
#  2046 = first_descriptor first_descriptor @ 2047 DATA
#  2047 = first_help first_help @ 2048 DATA
#  2048 = first_hint first_hint @ 2049 DATA
#  2049 = first_holiday first_holiday @ 2050 DATA
#  2050 = first_lang first_lang @ 2051 DATA
#  2051 = first_lmsg first_lmsg @ 2052 DATA
#  2052 = first_map first_map @ 2053 DATA
#  2053 = first_mixture first_mixture @ 2054 DATA
#  2054 = first_mpsleep first_mpsleep @ 2055 DATA
#  2055 = first_news_type first_news_type @ 2056 DATA
#  2056 = first_object first_object @ 2057 DATA
#  2057 = first_plane first_plane @ 2058 DATA
#  2058 = first_project first_project @ 2059 DATA
#  2059 = first_relation first_relation @ 2060 DATA
#  2060 = first_repair first_repair @ 2061 DATA
#  2061 = first_reserved first_reserved @ 2062 DATA
#  2062 = first_shop first_shop @ 2063 DATA
#  2063 = first_specfun first_specfun @ 2064 DATA
#  2064 = first_teleport first_teleport @ 2065 DATA
#  2065 = first_watch first_watch @ 2066 DATA
#  2066 = first_whogr first_whogr @ 2067 DATA
#  2067 = first_wiz first_wiz @ 2068 DATA
#  2068 = fpArea fpArea @ 2069 DATA
#  2069 = global_objcode global_objcode @ 2070 DATA
#  2070 = global_retcode global_retcode @ 2071 DATA
#  2071 = gsn_aid gsn_aid @ 2072 DATA
#  2072 = gsn_aqua_breath gsn_aqua_breath @ 2073 DATA
#  2073 = gsn_backstab gsn_backstab @ 2074 DATA
#  2074 = gsn_bash gsn_bash @ 2075 DATA
#  2075 = gsn_bashdoor gsn_bashdoor @ 2076 DATA
#  2076 = gsn_berserk gsn_berserk @ 2077 DATA
#  2077 = gsn_bite gsn_bite @ 2078 DATA
#  2078 = gsn_blindness gsn_blindness @ 2079 DATA
#  2079 = gsn_bloodlet gsn_bloodlet @ 2080 DATA
#  2080 = gsn_bludgeons gsn_bludgeons @ 2081 DATA
#  2081 = gsn_brew gsn_brew @ 2082 DATA
#  2082 = gsn_broach gsn_broach @ 2083 DATA
#  2083 = gsn_charm_person gsn_charm_person @ 2084 DATA
#  2084 = gsn_chill_touch gsn_chill_touch @ 2085 DATA
#  2085 = gsn_circle gsn_circle @ 2086 DATA
#  2086 = gsn_claw gsn_claw @ 2087 DATA
#  2087 = gsn_climb gsn_climb @ 2088 DATA
#  2088 = gsn_common gsn_common @ 2089 DATA
#  2089 = gsn_cook gsn_cook @ 2090 DATA
#  2090 = gsn_curse gsn_curse @ 2091 DATA
#  2091 = gsn_detrap gsn_detrap @ 2092 DATA
#  2092 = gsn_dig gsn_dig @ 2093 DATA
#  2093 = gsn_disarm gsn_disarm @ 2094 DATA
#  2094 = gsn_dodge gsn_dodge @ 2095 DATA
#  2095 = gsn_dual_wield gsn_dual_wield @ 2096 DATA
#  2096 = gsn_dwarven gsn_dwarven @ 2097 DATA
#  2097 = gsn_elven gsn_elven @ 2098 DATA
#  2098 = gsn_enhanced_damage gsn_enhanced_damage @ 2099 DATA
#  2099 = gsn_feed gsn_feed @ 2100 DATA
#  2100 = gsn_fifth_attack gsn_fifth_attack @ 2101 DATA
#  2101 = gsn_fireball gsn_fireball @ 2102 DATA
#  2102 = gsn_flexible_arms gsn_flexible_arms @ 2103 DATA
#  2103 = gsn_fourth_attack gsn_fourth_attack @ 2104 DATA
#  2104 = gsn_goblin gsn_goblin @ 2105 DATA
#  2105 = gsn_gouge gsn_gouge @ 2106 DATA
#  2106 = gsn_grip gsn_grip @ 2107 DATA
#  2107 = gsn_halfling gsn_halfling @ 2108 DATA
#  2108 = gsn_hide gsn_hide @ 2109 DATA
#  2109 = gsn_hitall gsn_hitall @ 2110 DATA
#  2110 = gsn_invis gsn_invis @ 2111 DATA
#  2111 = gsn_kick gsn_kick @ 2112 DATA
#  2112 = gsn_lightning_bolt gsn_lightning_bolt @ 2113 DATA
#  2113 = gsn_long_blades gsn_long_blades @ 2114 DATA
#  2114 = gsn_mass_invis gsn_mass_invis @ 2115 DATA
#  2115 = gsn_missile_weapons gsn_missile_weapons @ 2116 DATA
#  2116 = gsn_mistwalk gsn_mistwalk @ 2117 DATA
#  2117 = gsn_mount gsn_mount @ 2118 DATA
#  2118 = gsn_ogre gsn_ogre @ 2119 DATA
#  2119 = gsn_orcish gsn_orcish @ 2120 DATA
#  2120 = gsn_parry gsn_parry @ 2121 DATA
#  2121 = gsn_peek gsn_peek @ 2122 DATA
#  2122 = gsn_pick_lock gsn_pick_lock @ 2123 DATA
#  2123 = gsn_pixie gsn_pixie @ 2124 DATA
#  2124 = gsn_poison gsn_poison @ 2125 DATA
#  2125 = gsn_poison_weapon gsn_poison_weapon @ 2126 DATA
#  2126 = gsn_possess gsn_possess @ 2127 DATA
#  2127 = gsn_pugilism gsn_pugilism @ 2128 DATA
#  2128 = gsn_punch gsn_punch @ 2129 DATA
#  2129 = gsn_rescue gsn_rescue @ 2130 DATA
#  2130 = gsn_scan gsn_scan @ 2131 DATA
#  2131 = gsn_scribe gsn_scribe @ 2132 DATA
#  2132 = gsn_search gsn_search @ 2133 DATA
#  2133 = gsn_second_attack gsn_second_attack @ 2134 DATA
#  2134 = gsn_short_blades gsn_short_blades @ 2135 DATA
#  2135 = gsn_sleep gsn_sleep @ 2136 DATA
#  2136 = gsn_slice gsn_slice @ 2137 DATA
#  2137 = gsn_sneak gsn_sneak @ 2138 DATA
#  2138 = gsn_steal gsn_steal @ 2139 DATA
#  2139 = gsn_sting gsn_sting @ 2140 DATA
#  2140 = gsn_stun gsn_stun @ 2141 DATA
#  2141 = gsn_style_aggressive gsn_style_aggressive @ 2142 DATA
#  2142 = gsn_style_berserk gsn_style_berserk @ 2143 DATA
#  2143 = gsn_style_defensive gsn_style_defensive @ 2144 DATA
#  2144 = gsn_style_evasive gsn_style_evasive @ 2145 DATA
#  2145 = gsn_style_standard gsn_style_standard @ 2146 DATA
#  2146 = gsn_tail gsn_tail @ 2147 DATA
#  2147 = gsn_talonous_arms gsn_talonous_arms @ 2148 DATA
#  2148 = gsn_third_attack gsn_third_attack @ 2149 DATA
#  2149 = gsn_track gsn_track @ 2150 DATA
#  2150 = gsn_trollish gsn_trollish @ 2151 DATA
#  2151 = gsn_tumble gsn_tumble @ 2152 DATA
#  2152 = help_greeting help_greeting @ 2153 DATA
#  2153 = herb_table herb_table @ 2154 DATA
#  2154 = immortal_host_end immortal_host_end @ 2155 DATA
#  2155 = immortal_host_start immortal_host_start @ 2156 DATA
#  2156 = in_set in_set @ 2157 DATA
#  2157 = int_app int_app @ 2158 DATA
#  2158 = item_w_flags item_w_flags @ 2159 DATA
#  2159 = lang_array lang_array @ 2160 DATA
#  2160 = lang_names lang_names @ 2161 DATA
#  2161 = last_area last_area @ 2162 DATA
#  2162 = last_area_name last_area_name @ 2163 DATA
#  2163 = last_asort last_asort @ 2164 DATA
#  2164 = last_ban last_ban @ 2165 DATA
#  2165 = last_ban_class last_ban_class @ 2166 DATA
#  2166 = last_ban_race last_ban_race @ 2167 DATA
#  2167 = last_board last_board @ 2168 DATA
#  2168 = last_bsort last_bsort @ 2169 DATA
#  2169 = last_build last_build @ 2170 DATA
#  2170 = last_cache last_cache @ 2171 DATA
#  2171 = last_char last_char @ 2172 DATA
#  2172 = last_clan last_clan @ 2173 DATA
#  2173 = last_council last_council @ 2174 DATA
#  2174 = last_deity last_deity @ 2175 DATA
#  2175 = last_descriptor last_descriptor @ 2176 DATA
#  2176 = last_help last_help @ 2177 DATA
#  2177 = last_hint last_hint @ 2178 DATA
#  2178 = last_holiday last_holiday @ 2179 DATA
#  2179 = last_lang last_lang @ 2180 DATA
#  2180 = last_lmsg last_lmsg @ 2181 DATA
#  2181 = last_mixture last_mixture @ 2182 DATA
#  2182 = last_mpsleep last_mpsleep @ 2183 DATA
#  2183 = last_news_type last_news_type @ 2184 DATA
#  2184 = last_object last_object @ 2185 DATA
#  2185 = last_pkroom last_pkroom @ 2186 DATA
#  2186 = last_plane last_plane @ 2187 DATA
#  2187 = last_project last_project @ 2188 DATA
#  2188 = last_relation last_relation @ 2189 DATA
#  2189 = last_repair last_repair @ 2190 DATA
#  2190 = last_reserved last_reserved @ 2191 DATA
#  2191 = last_restore_all_time last_restore_all_time @ 2192 DATA
#  2192 = last_shop last_shop @ 2193 DATA
#  2193 = last_specfun last_specfun @ 2194 DATA
#  2194 = last_teleport last_teleport @ 2195 DATA
#  2195 = last_watch last_watch @ 2196 DATA
#  2196 = last_whogr last_whogr @ 2197 DATA
#  2197 = last_wiz last_wiz @ 2198 DATA
#  2198 = lastplayercmd lastplayercmd @ 2199 DATA
#  2199 = lck_app lck_app @ 2200 DATA
#  2200 = liq_count liq_count @ 2201 DATA
#  2201 = liq_table liq_table @ 2202 DATA
#  2202 = liquid_table liquid_table @ 2203 DATA
#  2203 = loading_char loading_char @ 2204 DATA
#  2204 = main main @ 2205 
#  2205 = maxdesc maxdesc @ 2206 DATA
#  2206 = mob_act_list mob_act_list @ 2207 DATA
#  2207 = mob_index_hash mob_index_hash @ 2208 DATA
#  2208 = mob_save_equipment mob_save_equipment @ 2209 DATA
#  2209 = month_name month_name @ 2210 DATA
#  2210 = moon_map moon_map @ 2211 DATA
#  2211 = morph_end morph_end @ 2212 DATA
#  2212 = morph_start morph_start @ 2213 DATA
#  2213 = morph_vnum morph_vnum @ 2214 DATA
#  2214 = movement_loss movement_loss @ 2215 DATA
#  2215 = mssp_info mssp_info @ 2216 DATA
#  2216 = mud_down mud_down @ 2217 DATA
#  2217 = mud_start_time mud_start_time @ 2218 DATA
#  2218 = new_boot_struct new_boot_struct @ 2219 DATA
#  2219 = new_boot_time new_boot_time @ 2220 DATA
#  2220 = new_boot_time_t new_boot_time_t @ 2221 DATA
#  2221 = newdesc newdesc @ 2222 DATA
#  2222 = news_command_table news_command_table @ 2223 DATA
#  2223 = npc_class npc_class @ 2224 DATA
#  2224 = npc_position npc_position @ 2225 DATA
#  2225 = npc_race npc_race @ 2226 DATA
#  2226 = npc_sex npc_sex @ 2227 DATA
#  2227 = num_descriptors num_descriptors @ 2228 DATA
#  2228 = num_skills num_skills @ 2229 DATA
#  2229 = num_sorted_skills num_sorted_skills @ 2230 DATA
#  2230 = nummobsloaded nummobsloaded @ 2231 DATA
#  2231 = numobjsloaded numobjsloaded @ 2232 DATA
#  2232 = o_flags o_flags @ 2233 DATA
#  2233 = o_types o_types @ 2234 DATA
#  2234 = obj_act_list obj_act_list @ 2235 DATA
#  2235 = obj_index_hash obj_index_hash @ 2236 DATA
#  2236 = out_set out_set @ 2237 DATA
#  2237 = pAbort pAbort @ 2238 DATA
#  2238 = p_blade_messages p_blade_messages @ 2239 DATA
#  2239 = p_blunt_messages p_blunt_messages @ 2240 DATA
#  2240 = p_generic_messages p_generic_messages @ 2241 DATA
#  2241 = p_message_table p_message_table @ 2242 DATA
#  2242 = part_flags part_flags @ 2243 DATA
#  2243 = part_messages part_messages @ 2244 DATA
#  2244 = part_vnums part_vnums @ 2245 DATA
#  2245 = pc_flags pc_flags @ 2246 DATA
#  2246 = physicalobjects physicalobjects @ 2247 DATA
#  2247 = plr_flags plr_flags @ 2248 DATA
#  2248 = port port @ 2249 DATA
#  2249 = precip_msg precip_msg @ 2250 DATA
#  2250 = precip_settings precip_settings @ 2251 DATA
#  2251 = preciptemp_msg preciptemp_msg @ 2252 DATA
#  2252 = quitting_char quitting_char @ 2253 DATA
#  2253 = r_flags r_flags @ 2254 DATA
#  2254 = race_table race_table @ 2255 DATA
#  2255 = ranged_target_name ranged_target_name @ 2256 DATA
#  2256 = reboot_time reboot_time @ 2257 DATA
#  2257 = rev_dir rev_dir @ 2258 DATA
#  2258 = ris_flags ris_flags @ 2259 DATA
#  2259 = room_act_list room_act_list @ 2260 DATA
#  2260 = room_index_hash room_index_hash @ 2261 DATA
#  2261 = s_blade_messages s_blade_messages @ 2262 DATA
#  2262 = s_blunt_messages s_blunt_messages @ 2263 DATA
#  2263 = s_generic_messages s_generic_messages @ 2264 DATA
#  2264 = s_message_table s_message_table @ 2265 DATA
#  2265 = save_equipment save_equipment @ 2266 DATA
#  2266 = saving_char saving_char @ 2267 DATA
#  2267 = season_name season_name @ 2268 DATA
#  2268 = sec_flags sec_flags @ 2269 DATA
#  2269 = service_shut_down service_shut_down @ 2270 DATA
#  2270 = set_boot_time set_boot_time @ 2271 DATA
#  2271 = set_boot_time_struct set_boot_time_struct @ 2272 DATA
#  2272 = silence_locate_targets silence_locate_targets @ 2273 DATA
#  2273 = skill_notfound skill_notfound @ 2274 
#  2274 = skill_table skill_table @ 2275 DATA
#  2275 = skill_table_bytype skill_table_bytype @ 2276 DATA
#  2276 = skill_tname skill_tname @ 2277 DATA
#  2277 = social_index social_index @ 2278 DATA
#  2278 = spec_breath_acid spec_breath_acid @ 2279 
#  2279 = spec_breath_any spec_breath_any @ 2280 
#  2280 = spec_breath_fire spec_breath_fire @ 2281 
#  2281 = spec_breath_frost spec_breath_frost @ 2282 
#  2282 = spec_breath_gas spec_breath_gas @ 2283 
#  2283 = spec_breath_lightning spec_breath_lightning @ 2284 
#  2284 = spec_cast_adept spec_cast_adept @ 2285 
#  2285 = spec_cast_cleric spec_cast_cleric @ 2286 
#  2286 = spec_cast_mage spec_cast_mage @ 2287 
#  2287 = spec_cast_undead spec_cast_undead @ 2288 
#  2288 = spec_executioner spec_executioner @ 2289 
#  2289 = spec_fido spec_fido @ 2290 
#  2290 = spec_guard spec_guard @ 2291 
#  2291 = spec_janitor spec_janitor @ 2292 
#  2292 = spec_mayor spec_mayor @ 2293 
#  2293 = spec_poison spec_poison @ 2294 
#  2294 = spec_thief spec_thief @ 2295 
#  2295 = spec_wanderer spec_wanderer @ 2296 
#  2296 = spell_acetum_primus spell_acetum_primus @ 2297 
#  2297 = spell_acid_blast spell_acid_blast @ 2298 
#  2298 = spell_acid_breath spell_acid_breath @ 2299 
#  2299 = spell_animate_dead spell_animate_dead @ 2300 
#  2300 = spell_astral_walk spell_astral_walk @ 2301 
#  2301 = spell_bethsaidean_touch spell_bethsaidean_touch @ 2302 
#  2302 = spell_black_fist spell_black_fist @ 2303 
#  2303 = spell_black_hand spell_black_hand @ 2304 
#  2304 = spell_black_lightning spell_black_lightning @ 2305 
#  2305 = spell_blindness spell_blindness @ 2306 
#  2306 = spell_burning_hands spell_burning_hands @ 2307 
#  2307 = spell_call_lightning spell_call_lightning @ 2308 
#  2308 = spell_cause_critical spell_cause_critical @ 2309 
#  2309 = spell_cause_light spell_cause_light @ 2310 
#  2310 = spell_cause_serious spell_cause_serious @ 2311 
#  2311 = spell_caustic_fount spell_caustic_fount @ 2312 
#  2312 = spell_change_sex spell_change_sex @ 2313 
#  2313 = spell_charm_person spell_charm_person @ 2314 
#  2314 = spell_chill_touch spell_chill_touch @ 2315 
#  2315 = spell_colour_spray spell_colour_spray @ 2316 
#  2316 = spell_control_weather spell_control_weather @ 2317 
#  2317 = spell_create_food spell_create_food @ 2318 
#  2318 = spell_create_water spell_create_water @ 2319 
#  2319 = spell_cure_blindness spell_cure_blindness @ 2320 
#  2320 = spell_cure_poison spell_cure_poison @ 2321 
#  2321 = spell_curse spell_curse @ 2322 
#  2322 = spell_detect_poison spell_detect_poison @ 2323 
#  2323 = spell_disenchant_weapon spell_disenchant_weapon @ 2324 
#  2324 = spell_dispel_evil spell_dispel_evil @ 2325 
#  2325 = spell_dispel_magic spell_dispel_magic @ 2326 
#  2326 = spell_disruption spell_disruption @ 2327 
#  2327 = spell_dream spell_dream @ 2328 
#  2328 = spell_earthquake spell_earthquake @ 2329 
#  2329 = spell_enchant_weapon spell_enchant_weapon @ 2330 
#  2330 = spell_energy_drain spell_energy_drain @ 2331 
#  2331 = spell_ethereal_fist spell_ethereal_fist @ 2332 
#  2332 = spell_expurgation spell_expurgation @ 2333 
#  2333 = spell_faerie_fire spell_faerie_fire @ 2334 
#  2334 = spell_faerie_fog spell_faerie_fog @ 2335 
#  2335 = spell_farsight spell_farsight @ 2336 
#  2336 = spell_fire_breath spell_fire_breath @ 2337 
#  2337 = spell_fireball spell_fireball @ 2338 
#  2338 = spell_flamestrike spell_flamestrike @ 2339 
#  2339 = spell_frost_breath spell_frost_breath @ 2340 
#  2340 = spell_galvanic_whip spell_galvanic_whip @ 2341 
#  2341 = spell_gas_breath spell_gas_breath @ 2342 
#  2342 = spell_gate spell_gate @ 2343 
#  2343 = spell_hand_of_chaos spell_hand_of_chaos @ 2344 
#  2344 = spell_harm spell_harm @ 2345 
#  2345 = spell_helical_flow spell_helical_flow @ 2346 
#  2346 = spell_identify spell_identify @ 2347 
#  2347 = spell_invis spell_invis @ 2348 
#  2348 = spell_knock spell_knock @ 2349 
#  2349 = spell_know_alignment spell_know_alignment @ 2350 
#  2350 = spell_lightning_bolt spell_lightning_bolt @ 2351 
#  2351 = spell_lightning_breath spell_lightning_breath @ 2352 
#  2352 = spell_locate_object spell_locate_object @ 2353 
#  2353 = spell_magic_missile spell_magic_missile @ 2354 
#  2354 = spell_magnetic_thrust spell_magnetic_thrust @ 2355 
#  2355 = spell_midas_touch spell_midas_touch @ 2356 
#  2356 = spell_mind_wrack spell_mind_wrack @ 2357 
#  2357 = spell_mind_wrench spell_mind_wrench @ 2358 
#  2358 = spell_mist_walk spell_mist_walk @ 2359 
#  2359 = spell_notfound spell_notfound @ 2360 
#  2360 = spell_null spell_null @ 2361 
#  2361 = spell_pass_door spell_pass_door @ 2362 
#  2362 = spell_plant_pass spell_plant_pass @ 2363 
#  2363 = spell_poison spell_poison @ 2364 
#  2364 = spell_polymorph spell_polymorph @ 2365 
#  2365 = spell_portal spell_portal @ 2366 
#  2366 = spell_possess spell_possess @ 2367 
#  2367 = spell_quantum_spike spell_quantum_spike @ 2368 
#  2368 = spell_recharge spell_recharge @ 2369 
#  2369 = spell_remove_curse spell_remove_curse @ 2370 
#  2370 = spell_remove_invis spell_remove_invis @ 2371 
#  2371 = spell_remove_trap spell_remove_trap @ 2372 
#  2372 = spell_revive spell_revive @ 2373 
#  2373 = spell_sacral_divinity spell_sacral_divinity @ 2374 
#  2374 = spell_scorching_surge spell_scorching_surge @ 2375 
#  2375 = spell_shocking_grasp spell_shocking_grasp @ 2376 
#  2376 = spell_sleep spell_sleep @ 2377 
#  2377 = spell_smaug spell_smaug @ 2378 
#  2378 = spell_solar_flight spell_solar_flight @ 2379 
#  2379 = spell_sonic_resonance spell_sonic_resonance @ 2380 
#  2380 = spell_spectral_furor spell_spectral_furor @ 2381 
#  2381 = spell_spiral_blast spell_spiral_blast @ 2382 
#  2382 = spell_sulfurous_spray spell_sulfurous_spray @ 2383 
#  2383 = spell_summon spell_summon @ 2384 
#  2384 = spell_teleport spell_teleport @ 2385 
#  2385 = spell_transport spell_transport @ 2386 
#  2386 = spell_ventriloquate spell_ventriloquate @ 2387 
#  2387 = spell_weaken spell_weaken @ 2388 
#  2388 = spell_word_of_recall spell_word_of_recall @ 2389 
#  2389 = star_map star_map @ 2390 DATA
#  2390 = start_compress2_str start_compress2_str @ 2391 DATA
#  2391 = strArea strArea @ 2392 DATA
#  2392 = str_app str_app @ 2393 DATA
#  2393 = str_boot_time str_boot_time @ 2394 DATA
#  2394 = string_hash string_hash @ 2395 DATA
#  2395 = sun_map sun_map @ 2396 DATA
#  2396 = supermob supermob @ 2397 DATA
#  2397 = supermob_obj supermob_obj @ 2398 DATA
#  2398 = sysdata sysdata @ 2399 DATA
#  2399 = target_name target_name @ 2400 DATA
#  2400 = temp_settings temp_settings @ 2401 DATA
#  2401 = text_map text_map @ 2402 DATA
#  2402 = time_info time_info @ 2403 DATA
#  2403 = timechar timechar @ 2404 DATA
#  2404 = title_table title_table @ 2405 DATA
#  2405 = top_affect top_affect @ 2406 DATA
#  2406 = top_area top_area @ 2407 DATA
#  2407 = top_ed top_ed @ 2408 DATA
#  2408 = top_exit top_exit @ 2409 DATA
#  2409 = top_help top_help @ 2410 DATA
#  2410 = top_herb top_herb @ 2411 DATA
#  2411 = top_liquid top_liquid @ 2412 DATA
#  2412 = top_mob_index top_mob_index @ 2413 DATA
#  2413 = top_news_type top_news_type @ 2414 DATA
#  2414 = top_obj_index top_obj_index @ 2415 DATA
#  2415 = top_repair top_repair @ 2416 DATA
#  2416 = top_reset top_reset @ 2417 DATA
#  2417 = top_room top_room @ 2418 DATA
#  2418 = top_shop top_shop @ 2419 DATA
#  2419 = top_vroom top_vroom @ 2420 DATA
#  2420 = trap_door trap_door @ 2421 DATA
#  2421 = trap_flags trap_flags @ 2422 DATA
#  2422 = trig_flags trig_flags @ 2423 DATA
#  2423 = trw_heap trw_heap @ 2424 DATA
#  2424 = trw_loops trw_loops @ 2425 DATA
#  2425 = tzone_table tzone_table @ 2426 DATA
#  2426 = used_weapon used_weapon @ 2427 DATA
#  2427 = version version @ 2428 DATA
#  2428 = vroom_hash vroom_hash @ 2429 DATA
#  2429 = w_flags w_flags @ 2430 DATA
#  2430 = wear_locs wear_locs @ 2431 DATA
#  2431 = weatherDelta weatherDelta @ 2432 DATA
#  2432 = weatherMap weatherMap @ 2433 DATA
#  2433 = where_name where_name @ 2434 DATA
#  2434 = will_compress2_str will_compress2_str @ 2435 DATA
#  2435 = wind_msg wind_msg @ 2436 DATA
#  2436 = wind_settings wind_settings @ 2437 DATA
#  2437 = windtemp_msg windtemp_msg @ 2438 DATA
#  2438 = winter_freeze winter_freeze @ 2439 DATA
#  2439 = DONT_UPPER DONT_UPPER @ 2440 DATA
	.section	.edata

	.long	0	# Allways 0
	.long	0x4c0ca0bc	# Time and date
	.long	0	# Major and Minor version
	.rva	name	# Ptr to name of dll
	.long	1	# Starting ordinal of exports
	.long	2440	# Number of functions
	# named funcs 2440, low ord 1, high ord 2440
	.long	2440	# Number of names
	.rva	afuncs  # Address of functions
	.rva	anames	# Address of Name Pointer Table
	.rva	anords	# Address of ordinals
name:	.asciz	"smaug.exe"
# Export address Table
	.align	4
afuncs:
	.rva	_wis_app	# 1
	.rva	_EXA_prog_trigger	# 2
	.rva	_MAX_PC_CLASS	# 3
	.rva	_MAX_PC_RACE	# 4
	.rva	_MOBtrigger	# 5
	.rva	__Z10RelDestroy13relation_typePvS0_	# 6
	.rva	__Z10accept_newi	# 7
	.rva	__Z10act_stringPKcP9char_dataS2_PKvS4_i	# 8
	.rva	__Z10actiondescP9char_dataP8obj_data	# 9
	.rva	__Z10add_rosterP9clan_dataPKciiii	# 10
	.rva	__Z10add_socialP11social_type	# 11
	.rva	__Z10can_astralP9char_dataS0_	# 12
	.rva	__Z10can_removeP9char_dataP10board_data	# 13
	.rva	__Z10capitalizePKc	# 14
	.rva	__Z10carried_byP8obj_data	# 15
	.rva	__Z10ch_slookupP9char_dataPKc	# 16
	.rva	__Z10char_checkv	# 17
	.rva	__Z10check_bansP9char_datai	# 18
	.rva	__Z10check_gripP9char_dataS0_	# 19
	.rva	__Z10check_hashPKc	# 20
	.rva	__Z10check_saveiiP9char_dataS0_	# 21
	.rva	__Z10clean_roomP15room_index_data	# 22
	.rva	__Z10clear_charP9char_data	# 23
	.rva	__Z10clear_roomii	# 24
	.rva	__Z10close_areaP9area_data	# 25
	.rva	__Z10copy_morphP10morph_dataS0_	# 26
	.rva	__Z10could_dualP9char_data	# 27
	.rva	__Z10countlangsi	# 28
	.rva	__Z10damage_objP8obj_data	# 29
	.rva	__Z10delete_mobP14mob_index_data	# 30
	.rva	__Z10delete_objP14obj_index_data	# 31
	.rva	__Z10dice_parseP9char_dataiPKc	# 32
	.rva	__Z10do_mprmtagP9char_dataPKc	# 33
	.rva	__Z10do_mpstrewP9char_dataPKc	# 34
	.rva	__Z10do_unmorphP9char_data	# 35
	.rva	__Z10equip_charP9char_dataP8obj_datai	# 36
	.rva	__Z10find_boardP9char_data	# 37
	.rva	__Z10find_fixerP9char_data	# 38
	.rva	__Z10find_morphP9char_dataPKcb	# 39
	.rva	__Z10find_quillP9char_data	# 40
	.rva	__Z10find_skillP9char_dataPKcb	# 41
	.rva	__Z10find_spellP9char_dataPKcb	# 42
	.rva	__Z10find_whogrP15descriptor_dataP7whogr_s	# 43
	.rva	__Z10found_preyP9char_dataS0_	# 44
	.rva	__Z10fread_cellP9__sFILE64ii	# 45
	.rva	__Z10fread_charP9char_dataP9__sFILE64bb	# 46
	.rva	__Z10fread_clanP9clan_dataP9__sFILE64	# 47
	.rva	__Z10fread_lineP9__sFILE64	# 48
	.rva	__Z10fread_newsP9news_dataP9__sFILE64	# 49
	.rva	__Z10fread_wordP9__sFILE64	# 50
	.rva	__Z10free_boardP10board_data	# 51
	.rva	__Z10free_clansv	# 52
	.rva	__Z10free_deityP10deity_data	# 53
	.rva	__Z10free_fightP9char_data	# 54
	.rva	__Z10free_helpsv	# 55
	.rva	__Z10free_morphP10morph_data	# 56
	.rva	__Z10free_planeP10plane_data	# 57
	.rva	__Z10free_skillP10skill_type	# 58
	.rva	__Z10fwrite_objP9char_dataP8obj_dataP9__sFILE64isb	# 59
	.rva	__Z10get_exflagPKc	# 60
	.rva	__Z10get_mpflagPKc	# 61
	.rva	__Z10get_pcflagPKc	# 62
	.rva	__Z10get_sclassPKc	# 63
	.rva	__Z10get_spowerPKc	# 64
	.rva	__Z10group_gainP9char_dataS0_	# 65
	.rva	__Z10hash_statsv	# 66
	.rva	__Z10hide_tildePc	# 67
	.rva	__Z10init_chessv	# 68
	.rva	__Z10isDownpouri	# 69
	.rva	__Z10isFreezingi	# 70
	.rva	__Z10isVeryColdi	# 71
	.rva	__Z10is_fearingP9char_dataS0_	# 72
	.rva	__Z10is_huntingP9char_dataS0_	# 73
	.rva	__Z10is_note_toP9char_dataP9note_data	# 74
	.rva	__Z10is_trappedP8obj_data	# 75
	.rva	__Z10legal_lootP9char_dataS0_	# 76
	.rva	__Z10load_clansv	# 77
	.rva	__Z10load_deityv	# 78
	.rva	__Z10load_flagsP9area_dataP9__sFILE64	# 79
	.rva	__Z10load_helpsP9__sFILE64	# 80
	.rva	__Z10load_racesv	# 81
	.rva	__Z10load_roomsP9area_dataP9__sFILE64	# 82
	.rva	__Z10load_shopsP9__sFILE64	# 83
	.rva	__Z10load_worldv	# 84
	.rva	__Z10log_printfPKcz	# 85
	.rva	__Z10mail_countP9char_data	# 86
	.rva	__Z10make_bloodP9char_data	# 87
	.rva	__Z10make_resetciiii	# 88
	.rva	__Z10mssp_replyP15descriptor_dataPKcS2_z	# 89
	.rva	__Z10mudstrlcatPcPKcj	# 90
	.rva	__Z10mudstrlcpyPcPKcj	# 91
	.rva	__Z10obj_to_objP8obj_dataS0_	# 92
	.rva	__Z10obj_updatev	# 93
	.rva	__Z10pullorpushP9char_dataP8obj_datab	# 94
	.rva	__Z10quick_linkPKc	# 95
	.rva	__Z10read_boardP9__sFILE64	# 96
	.rva	__Z10read_planeP9__sFILE64	# 97
	.rva	__Z10remove_objP9char_dataib	# 98
	.rva	__Z10remove_tagP9char_dataPci	# 99
	.rva	__Z10reset_areaP9area_data	# 100
	.rva	__Z10reset_roomP15room_index_data	# 101
	.rva	__Z10ris_damageP9char_datasi	# 102
	.rva	__Z10save_deityP10deity_data	# 103
	.rva	__Z10save_racesv	# 104
	.rva	__Z10save_worldv	# 105
	.rva	__Z10sec_to_hmslPc	# 106
	.rva	__Z10send_timerP8timersetP9char_data	# 107
	.rva	__Z10show_tildePKc	# 108
	.rva	__Z10show_titleP15descriptor_data	# 109
	.rva	__Z10show_vnumsP9char_dataiibbPKcS2_	# 110
	.rva	__Z10showaffectP9char_dataP11affect_data	# 111
	.rva	__Z10skill_compPP10skill_typeS1_	# 112
	.rva	__Z10sort_exitsP15room_index_data	# 113
	.rva	__Z10stamp_timev	# 114
	.rva	__Z10start_fallv	# 115
	.rva	__Z10str_prefixPKcS0_	# 116
	.rva	__Z10str_suffixPKcS0_	# 117
	.rva	__Z10tail_chainv	# 118
	.rva	__Z10teleportchP9char_dataP15room_index_datab	# 119
	.rva	__Z10to_channelPKciS0_s	# 120
	.rva	__Z10trvch_nextP8trv_data	# 121
	.rva	__Z10update_posP9char_data	# 122
	.rva	__Z10valid_edgeP9exit_data	# 123
	.rva	__Z10warn_progsP9char_dataiiP9area_dataP14renumber_areas	# 124
	.rva	__Z10write_hintv	# 125
	.rva	__Z10xp_computeP9char_dataS0_	# 126
	.rva	__Z11SHA256_InitP13SHA256Context	# 127
	.rva	__Z11add_commandP8cmd_type	# 128
	.rva	__Z11affect_joinP9char_dataP11affect_data	# 129
	.rva	__Z11aggr_updatev	# 130
	.rva	__Z11append_fileP9char_dataPKcS2_	# 131
	.rva	__Z11area_updatev	# 132
	.rva	__Z11aris_affectP9char_dataP11affect_data	# 133
	.rva	__Z11assign_areaP9char_data	# 134
	.rva	__Z11auth_updatev	# 135
	.rva	__Z11bfs_dequeuev	# 136
	.rva	__Z11bfs_enqueueP15room_index_datac	# 137
	.rva	__Z11calc_seasonv	# 138
	.rva	__Z11can_carry_nP9char_data	# 139
	.rva	__Z11can_carry_wP9char_data	# 140
	.rva	__Z11can_mmodifyP9char_dataS0_	# 141
	.rva	__Z11can_omodifyP9char_dataP8obj_data	# 142
	.rva	__Z11can_outcastP9clan_dataP9char_dataS2_	# 143
	.rva	__Z11can_rmodifyP9char_dataP15room_index_data	# 144
	.rva	__Z11can_see_objP9char_dataP8obj_data	# 145
	.rva	__Z11char_updatev	# 146
	.rva	__Z11check_blindP9char_data	# 147
	.rva	__Z11check_dodgeP9char_dataS0_	# 148
	.rva	__Z11check_parryP9char_dataS0_	# 149
	.rva	__Z11check_skillP9char_dataPcS1_	# 150
	.rva	__Z11check_vnumsP9char_dataP9area_dataP14renumber_areas	# 151
	.rva	__Z11clear_coordii	# 152
	.rva	__Z11color_alignPKcii	# 153
	.rva	__Z11compressEndP15descriptor_data	# 154
	.rva	__Z11copy_bufferP9char_data	# 155
	.rva	__Z11count_linesPc	# 156
	.rva	__Z11create_areav	# 157
	.rva	__Z11delete_roomP15room_index_data	# 158
	.rva	__Z11dispose_banP8ban_datai	# 159
	.rva	__Z11do_compressP9char_dataPKc	# 160
	.rva	__Z11do_mprmflagP9char_dataPKc	# 161
	.rva	__Z11echo_to_allsPKcs	# 162
	.rva	__Z11economy_hasP9area_datai	# 163
	.rva	__Z11edit_bufferP9char_dataPc	# 164
	.rva	__Z11encumbranceP9char_datas	# 165
	.rva	__Z11extract_objP8obj_data	# 166
	.rva	__Z11figure_typePKc	# 167
	.rva	__Z11find_keeperP9char_data	# 168
	.rva	__Z11find_oresetP15room_index_dataPKc	# 169
	.rva	__Z11find_socialPKc	# 170
	.rva	__Z11find_tongueP9char_dataPKcb	# 171
	.rva	__Z11find_weaponP9char_dataPKcb	# 172
	.rva	__Z11flag_stringiPKPKc	# 173
	.rva	__Z11fread_deityP10deity_dataP9__sFILE64	# 174
	.rva	__Z11fread_morphP9__sFILE64	# 175
	.rva	__Z11fread_skillP9__sFILE64	# 176
	.rva	__Z11free_boardsv	# 177
	.rva	__Z11free_morphsv	# 178
	.rva	__Z11free_skillsv	# 179
	.rva	__Z11free_socialP11social_type	# 180
	.rva	__Z11fwrite_charP9char_dataP9__sFILE64	# 181
	.rva	__Z11getHumidityP11WeatherCell	# 182
	.rva	__Z11getPressureP11WeatherCell	# 183
	.rva	__Z11get_actflagPKc	# 184
	.rva	__Z11get_climatePc	# 185
	.rva	__Z11get_cmdflagPKc	# 186
	.rva	__Z11get_councilPKc	# 187
	.rva	__Z11get_eq_charP9char_datai	# 188
	.rva	__Z11get_exit_toP15room_index_datasi	# 189
	.rva	__Z11get_holidayss	# 190
	.rva	__Z11get_langnumPKc	# 191
	.rva	__Z11get_npc_sexPKc	# 192
	.rva	__Z11get_objtypeP9char_datas	# 193
	.rva	__Z11get_pc_racePKc	# 194
	.rva	__Z11get_plrflagPKc	# 195
	.rva	__Z11get_risflagPKc	# 196
	.rva	__Z11get_sactionPKc	# 197
	.rva	__Z11get_sdamagePKc	# 198
	.rva	__Z11get_secflagPKc	# 199
	.rva	__Z11get_stargetPKc	# 200
	.rva	__Z11get_wearlocPKc	# 201
	.rva	__Z11herb_lookupPKc	# 202
	.rva	__Z11hint_updatev	# 203
	.rva	__Z11hunt_victimP9char_data	# 204
	.rva	__Z11init_socketi	# 205
	.rva	__Z11interpolateiii	# 206
	.rva	__Z11isCalmWindEi	# 207
	.rva	__Z11isCalmWindNi	# 208
	.rva	__Z11isCalmWindSi	# 209
	.rva	__Z11isCalmWindWi	# 210
	.rva	__Z11isDrizzlingi	# 211
	.rva	__Z11isTemperatei	# 212
	.rva	__Z11is_affectedP9char_datai	# 213
	.rva	__Z11is_ignoringP9char_dataS0_	# 214
	.rva	__Z11liq_can_mixP8obj_dataS0_	# 215
	.rva	__Z11load_authorP9area_dataP9__sFILE64	# 216
	.rva	__Z11load_boardsv	# 217
	.rva	__Z11load_mobileP9__sFILE64	# 218
	.rva	__Z11load_morphsv	# 219
	.rva	__Z11load_planesv	# 220
	.rva	__Z11load_rangesP9area_dataP9__sFILE64	# 221
	.rva	__Z11load_resetsP9area_dataP9__sFILE64	# 222
	.rva	__Z11make_corpseP9char_dataS0_	# 223
	.rva	__Z11make_mobileiiPKc	# 224
	.rva	__Z11make_objectiiPKc	# 225
	.rva	__Z11make_scrapsP8obj_data	# 226
	.rva	__Z11mini_c_timeli	# 227
	.rva	__Z11mob_act_addP9char_data	# 228
	.rva	__Z11mprog_sevalPKcS0_S0_P9char_data	# 229
	.rva	__Z11mprog_vevaliPciP9char_data	# 230
	.rva	__Z11ms_find_objP9char_data	# 231
	.rva	__Z11name_expandP9char_data	# 232
	.rva	__Z11note_attachP9char_data	# 233
	.rva	__Z11note_removeP10board_dataP9note_data	# 234
	.rva	__Z11number_bitsi	# 235
	.rva	__Z11number_doorv	# 236
	.rva	__Z11obj_act_addP8obj_data	# 237
	.rva	__Z11obj_hitrollP8obj_data	# 238
	.rva	__Z11obj_to_charP8obj_dataP9char_data	# 239
	.rva	__Z11obj_to_roomP8obj_dataP15room_index_data	# 240
	.rva	__Z11process_dnsP15descriptor_data	# 241
	.rva	__Z11race_stringi	# 242
	.rva	__Z11random_ansis	# 243
	.rva	__Z11resolve_dnsP15descriptor_datal	# 244
	.rva	__Z11room_affectP15room_index_dataP11affect_datab	# 245
	.rva	__Z11room_is_dndP9char_dataP15room_index_data	# 246
	.rva	__Z11save_mobileP9__sFILE64P9char_data	# 247
	.rva	__Z11save_morphsv	# 248
	.rva	__Z11save_planesv	# 249
	.rva	__Z11saves_wandsiP9char_data	# 250
	.rva	__Z11set_cur_objP8obj_data	# 251
	.rva	__Z11show_colorsP9char_data	# 252
	.rva	__Z11slot_lookupi	# 253
	.rva	__Z11smash_tildePKc	# 254
	.rva	__Z11smash_tildePc	# 255
	.rva	__Z11smush_tildePc	# 256
	.rva	__Z11spec_lookupPKc	# 257
	.rva	__Z11spring_trapP9char_dataP8obj_data	# 258
	.rva	__Z11start_timerP7timeval	# 259
	.rva	__Z11stop_hatingP9char_data	# 260
	.rva	__Z11stop_idlingP9char_data	# 261
	.rva	__Z11tele_updatev	# 262
	.rva	__Z11time_updatev	# 263
	.rva	__Z11trv_disposePP8trv_data	# 264
	.rva	__Z11trvch_wnextP9trv_world	# 265
	.rva	__Z11trvobj_nextP8trv_data	# 266
	.rva	__Z11unmorph_allP10morph_data	# 267
	.rva	__Z11update_arisP9char_data	# 268
	.rva	__Z11update_timeP2tm	# 269
	.rva	__Z11valid_watchPc	# 270
	.rva	__Z11wipe_resetsP15room_index_data	# 271
	.rva	__Z11write_boardP10board_data	# 272
	.rva	__Z12DecreaseTempP11WeatherCelli	# 273
	.rva	__Z12IncreaseTempP11WeatherCelli	# 274
	.rva	__Z12SHA256_FinalPhP13SHA256Context	# 275
	.rva	__Z12add_followerP9char_dataS0_	# 276
	.rva	__Z12add_loginmsgPcsS_	# 277
	.rva	__Z12adjust_favorP9char_dataii	# 278
	.rva	__Z12affect_stripP9char_datai	# 279
	.rva	__Z12appraise_allP9char_dataS0_PKc	# 280
	.rva	__Z12can_drop_objP9char_dataP8obj_data	# 281
	.rva	__Z12caught_alarmi	# 282
	.rva	__Z12char_to_roomP9char_dataP15room_index_data	# 283
	.rva	__Z12check_expireP8ban_data	# 284
	.rva	__Z12check_killerP9char_dataS0_	# 285
	.rva	__Z12check_planesP10plane_data	# 286
	.rva	__Z12check_socialP9char_dataPKcS2_	# 287
	.rva	__Z12check_switchP9char_datab	# 288
	.rva	__Z12check_tumbleP9char_dataS0_	# 289
	.rva	__Z12class_stringi	# 290
	.rva	__Z12clean_resetsP15room_index_data	# 291
	.rva	__Z12clear_vroomsv	# 292
	.rva	__Z12clone_objectP8obj_data	# 293
	.rva	__Z12close_socketP15descriptor_datab	# 294
	.rva	__Z12color_strlenPKc	# 295
	.rva	__Z12create_moneyi	# 296
	.rva	__Z12create_whogrP9char_data	# 297
	.rva	__Z12delete_resetP10reset_data	# 298
	.rva	__Z12delete_vdataP13variable_data	# 299
	.rva	__Z12die_followerP9char_data	# 300
	.rva	__Z12display_newsP9char_dataP9news_dataP9news_type	# 301
	.rva	__Z12drunk_speechPKcP9char_data	# 302
	.rva	__Z12echo_to_roomsP15room_index_dataPKc	# 303
	.rva	__Z12ext_has_bitsP18extended_bitvectorS0_	# 304
	.rva	__Z12ext_is_emptyP18extended_bitvector	# 305
	.rva	__Z12ext_set_bitsP18extended_bitvectorS0_	# 306
	.rva	__Z12extract_charP9char_datab	# 307
	.rva	__Z12extract_exitP15room_index_dataP9exit_data	# 308
	.rva	__Z12find_abilityP9char_dataPKcb	# 309
	.rva	__Z12find_commandPc	# 310
	.rva	__Z12find_old_ageP9char_data	# 311
	.rva	__Z12flush_bufferP15descriptor_datab	# 312
	.rva	__Z12fread_letterP9__sFILE64	# 313
	.rva	__Z12fread_liquidP9__sFILE64	# 314
	.rva	__Z12fread_mobileP9__sFILE64	# 315
	.rva	__Z12fread_numberP9__sFILE64	# 316
	.rva	__Z12fread_socialP9__sFILE64	# 317
	.rva	__Z12fread_stringP9__sFILE64	# 318
	.rva	__Z12fread_to_eolP9__sFILE64	# 319
	.rva	__Z12free_commandP8cmd_type	# 320
	.rva	__Z12free_deitiesv	# 321
	.rva	__Z12free_holidayP12holiday_data	# 322
	.rva	__Z12free_reserveP12reserve_data	# 323
	.rva	__Z12free_socialsv	# 324
	.rva	__Z12free_tonguesv	# 325
	.rva	__Z12fwrite_langsv	# 326
	.rva	__Z12fwrite_morphP9__sFILE64P10morph_data	# 327
	.rva	__Z12fwrite_skillP9__sFILE64P10skill_type	# 328
	.rva	__Z12get_area_objP14obj_index_data	# 329
	.rva	__Z12get_areaflagPKc	# 330
	.rva	__Z12get_curr_chaP9char_data	# 331
	.rva	__Z12get_curr_conP9char_data	# 332
	.rva	__Z12get_curr_dexP9char_data	# 333
	.rva	__Z12get_curr_intP9char_data	# 334
	.rva	__Z12get_curr_lckP9char_data	# 335
	.rva	__Z12get_curr_strP9char_data	# 336
	.rva	__Z12get_curr_wisP9char_data	# 337
	.rva	__Z12get_exit_diriPiS_ii	# 338
	.rva	__Z12get_exit_numP15room_index_datas	# 339
	.rva	__Z12get_exp_baseP9char_data	# 340
	.rva	__Z12get_langflagPKc	# 341
	.rva	__Z12get_liq_vnumi	# 342
	.rva	__Z12get_npc_racePKc	# 343
	.rva	__Z12get_obj_hereP9char_dataPKc	# 344
	.rva	__Z12get_obj_listP9char_dataPcP8obj_data	# 345
	.rva	__Z12get_obj_roomP14obj_index_dataP15room_index_data	# 346
	.rva	__Z12get_obj_typeP14obj_index_data	# 347
	.rva	__Z12get_obj_vnumP9char_datai	# 348
	.rva	__Z12get_obj_wearP9char_dataPKc	# 349
	.rva	__Z12get_partflagPKc	# 350
	.rva	__Z12get_pc_classPKc	# 351
	.rva	__Z12get_pulltypePKc	# 352
	.rva	__Z12get_saveflagPKc	# 353
	.rva	__Z12get_timerptrP9char_datas	# 354
	.rva	__Z12get_trapflagPKc	# 355
	.rva	__Z12get_trigflagPKc	# 356
	.rva	__Z12group_objectP8obj_dataS0_	# 357
	.rva	__Z12in_dns_cachePc	# 358
	.rva	__Z12indent_whogrP9char_dataP7whogr_si	# 359
	.rva	__Z12isGustyWindEi	# 360
	.rva	__Z12isGustyWindNi	# 361
	.rva	__Z12isGustyWindSi	# 362
	.rva	__Z12isGustyWindWi	# 363
	.rva	__Z12isReallyColdi	# 364
	.rva	__Z12isWindyWindEi	# 365
	.rva	__Z12isWindyWindNi	# 366
	.rva	__Z12isWindyWindSi	# 367
	.rva	__Z12isWindyWindWi	# 368
	.rva	__Z12is_valid_tagPKc	# 369
	.rva	__Z12load_banlistv	# 370
	.rva	__Z12load_classesv	# 371
	.rva	__Z12load_climateP9area_dataP9__sFILE64	# 372
	.rva	__Z12load_corpsesv	# 373
	.rva	__Z12load_creditsP9area_dataP9__sFILE64	# 374
	.rva	__Z12load_economyP9area_dataP9__sFILE64	# 375
	.rva	__Z12load_liquidsv	# 376
	.rva	__Z12load_mobilesP9area_dataP9__sFILE64	# 377
	.rva	__Z12load_objectsP9area_dataP9__sFILE64	# 378
	.rva	__Z12load_repairsP9__sFILE64	# 379
	.rva	__Z12load_socialsv	# 380
	.rva	__Z12load_tonguesv	# 381
	.rva	__Z12load_versionP9area_dataP9__sFILE64	# 382
	.rva	__Z12make_wizlistv	# 383
	.rva	__Z12map_to_roomsP9char_dataP14map_index_data	# 384
	.rva	__Z12modify_skillP9char_dataiib	# 385
	.rva	__Z12mprog_driverPKcP9char_dataS2_P8obj_dataPKvb	# 386
	.rva	__Z12number_fuzzyi	# 387
	.rva	__Z12number_rangeii	# 388
	.rva	__Z12obj_from_objP8obj_data	# 389
	.rva	__Z12off_shld_lvlP9char_dataS0_	# 390
	.rva	__Z12one_argumentPKcPc	# 391
	.rva	__Z12one_argumentPcS_	# 392
	.rva	__Z12pager_outputP15descriptor_data	# 393
	.rva	__Z12pager_printfP9char_dataPKcz	# 394
	.rva	__Z12plane_lookupPKc	# 395
	.rva	__Z12player_countv	# 396
	.rva	__Z12read_projectP9__sFILE64	# 397
	.rva	__Z12reboot_checkl	# 398
	.rva	__Z12remove_timerP9char_datas	# 399
	.rva	__Z12reset_colorsP9char_data	# 400
	.rva	__Z12room_act_addP15room_index_data	# 401
	.rva	__Z12room_enqueueP15room_index_data	# 402
	.rva	__Z12room_is_darkP15room_index_data	# 403
	.rva	__Z12save_banlistv	# 404
	.rva	__Z12save_classesv	# 405
	.rva	__Z12save_councilP12council_data	# 406
	.rva	__Z12save_liquidsv	# 407
	.rva	__Z12save_socialsv	# 408
	.rva	__Z12save_sysdata11system_data	# 409
	.rva	__Z12saves_breathiP9char_data	# 410
	.rva	__Z12send_to_charPKcP9char_data	# 411
	.rva	__Z12separate_objP8obj_data	# 412
	.rva	__Z12set_cur_charP9char_data	# 413
	.rva	__Z12set_fightingP9char_dataS0_	# 414
	.rva	__Z12set_supermobP8obj_data	# 415
	.rva	__Z12sha256_cryptPKc	# 416
	.rva	__Z12shutdown_mudPKc	# 417
	.rva	__Z12skill_lookupPKc	# 418
	.rva	__Z12spell_affectiiP9char_dataPv	# 419
	.rva	__Z12spell_attackiiP9char_dataPv	# 420
	.rva	__Z12sprint_resetP10reset_dataPs	# 421
	.rva	__Z12start_hatingP9char_dataS0_	# 422
	.rva	__Z12start_springv	# 423
	.rva	__Z12start_summerv	# 424
	.rva	__Z12start_winterv	# 425
	.rva	__Z12stop_editingP9char_data	# 426
	.rva	__Z12stop_fearingP9char_data	# 427
	.rva	__Z12stop_huntingP9char_data	# 428
	.rva	__Z12talk_auctionPc	# 429
	.rva	__Z12talk_channelP9char_dataPKciS2_	# 430
	.rva	__Z12times_killedP9char_dataS0_	# 431
	.rva	__Z12trvch_createP9char_data8trv_type	# 432
	.rva	__Z12trvobj_wnextP9trv_world	# 433
	.rva	__Z12tzone_lookupPKc	# 434
	.rva	__Z12unequip_charP9char_dataP8obj_data	# 435
	.rva	__Z12warn_in_progP9char_dataiiPKciP13mob_prog_dataP14renumber_areas	# 436
	.rva	__Z12who_fightingP9char_data	# 437
	.rva	__Z13DecreaseWindXP11WeatherCelli	# 438
	.rva	__Z13DecreaseWindYP11WeatherCelli	# 439
	.rva	__Z13IncreaseWindXP11WeatherCelli	# 440
	.rva	__Z13IncreaseWindYP11WeatherCelli	# 441
	.rva	__Z13SHA256_UpdateP13SHA256ContextPKhj	# 442
	.rva	__Z13UpdateWeatherv	# 443
	.rva	__Z13add_obj_resetP15room_index_datacP8obj_dataii	# 444
	.rva	__Z13advance_levelP9char_data	# 445
	.rva	__Z13affect_modifyP9char_dataP11affect_datab	# 446
	.rva	__Z13affect_removeP9char_dataP11affect_data	# 447
	.rva	__Z13align_computeP9char_dataS0_	# 448
	.rva	__Z13boost_economyP9area_datai	# 449
	.rva	__Z13calculate_ageP9char_data	# 450
	.rva	__Z13can_use_skillP9char_dataii	# 451
	.rva	__Z13chance_attribP9char_datass	# 452
	.rva	__Z13check_abilityP9char_dataPcS1_	# 453
	.rva	__Z13check_playingP15descriptor_dataPKcb	# 454
	.rva	__Z13circle_followP9char_dataS0_	# 455
	.rva	__Z13compressStartP15descriptor_data	# 456
	.rva	__Z13create_mobileP14mob_index_data	# 457
	.rva	__Z13create_objectP14obj_index_datai	# 458
	.rva	__Z13de_equip_charP9char_data	# 459
	.rva	__Z13decorate_roomP15room_index_data	# 460
	.rva	__Z13do_morph_charP9char_dataP10morph_data	# 461
	.rva	__Z13draw_room_mapP9char_dataPKc	# 462
	.rva	__Z13drunk_randomsP9char_data	# 463
	.rva	__Z13ext_same_bitsP18extended_bitvectorS0_	# 464
	.rva	__Z13extract_timerP9char_dataP10timer_data	# 465
	.rva	__Z13find_locationP9char_dataPKc	# 466
	.rva	__Z13fread_commandP9__sFILE64	# 467
	.rva	__Z13fread_commentP9char_dataP9__sFILE64	# 468
	.rva	__Z13fread_councilP12council_dataP9__sFILE64	# 469
	.rva	__Z13fread_mixtureP9__sFILE64	# 470
	.rva	__Z13fread_sysdataP11system_dataP9__sFILE64	# 471
	.rva	__Z13free_commandsv	# 472
	.rva	__Z13free_councilsv	# 473
	.rva	__Z13free_holidaysv	# 474
	.rva	__Z13free_one_clanP9clan_data	# 475
	.rva	__Z13free_projectsv	# 476
	.rva	__Z13free_specfunsv	# 477
	.rva	__Z13fwrite_mobileP9__sFILE64P9char_data	# 478
	.rva	__Z13generate_exitP15room_index_dataPP9exit_data	# 479
	.rva	__Z13getCloudCoverP11WeatherCell	# 480
	.rva	__Z13get_char_roomP9char_dataPKc	# 481
	.rva	__Z13get_ed_numberP8obj_datai	# 482
	.rva	__Z13get_exp_worthP9char_data	# 483
	.rva	__Z13get_map_indexi	# 484
	.rva	__Z13get_mob_indexi	# 485
	.rva	__Z13get_npc_classPKc	# 486
	.rva	__Z13get_obj_carryP9char_dataPKc	# 487
	.rva	__Z13get_obj_indexi	# 488
	.rva	__Z13get_obj_worldP9char_dataPKc	# 489
	.rva	__Z13get_skilltypei	# 490
	.rva	__Z13in_hard_rangeP9char_dataP9area_data	# 491
	.rva	__Z13in_hash_tablePKc	# 492
	.rva	__Z13in_soft_rangeP9char_dataP9area_data	# 493
	.rva	__Z13init_supermobv	# 494
	.rva	__Z13isBreezyWindEi	# 495
	.rva	__Z13isBreezyWindNi	# 496
	.rva	__Z13isBreezyWindSi	# 497
	.rva	__Z13isBreezyWindWi	# 498
	.rva	__Z13isLowPressurei	# 499
	.rva	__Z13is_legal_killP9char_dataS0_	# 500
	.rva	__Z13is_same_groupP9char_dataS0_	# 501
	.rva	__Z13load_char_objP15descriptor_dataPcbb	# 502
	.rva	__Z13load_commandsv	# 503
	.rva	__Z13load_councilsv	# 504
	.rva	__Z13load_holidaysv	# 505
	.rva	__Z13load_imm_hostv	# 506
	.rva	__Z13load_loginmsgv	# 507
	.rva	__Z13load_mixturesv	# 508
	.rva	__Z13load_neighborP9area_dataP9__sFILE64	# 509
	.rva	__Z13load_projectsv	# 510
	.rva	__Z13load_reservedv	# 511
	.rva	__Z13load_resetmsgP9area_dataP9__sFILE64	# 512
	.rva	__Z13load_specfunsv	# 513
	.rva	__Z13load_specialsP9__sFILE64	# 514
	.rva	__Z13load_timedatav	# 515
	.rva	__Z13lower_economyP9area_datai	# 516
	.rva	__Z13make_variableciPc	# 517
	.rva	__Z13mobile_updatev	# 518
	.rva	__Z13news_cmd_hookP9char_dataPcS1_	# 519
	.rva	__Z13nifty_is_namePKcS0_	# 520
	.rva	__Z13obj_extractedP8obj_data	# 521
	.rva	__Z13obj_from_charP8obj_data	# 522
	.rva	__Z13obj_from_roomP8obj_data	# 523
	.rva	__Z13old_fold_areaP9area_dataPcb	# 524
	.rva	__Z13one_argument2PKcPc	# 525
	.rva	__Z13print_compassP9char_data	# 526
	.rva	__Z13ranged_attackP9char_dataPKcP8obj_dataS4_ss	# 527
	.rva	__Z13re_equip_charP9char_data	# 528
	.rva	__Z13read_from_dnsiPc	# 529
	.rva	__Z13read_obj_filePcS_	# 530
	.rva	__Z13reformat_descPc	# 531
	.rva	__Z13remove_portalP8obj_data	# 532
	.rva	__Z13remove_rosterP9clan_dataPKc	# 533
	.rva	__Z13renumber_areaP9char_dataP9area_dataP14renumber_areasbb	# 534
	.rva	__Z13renumber_newsv	# 535
	.rva	__Z13rset_supermobP15room_index_data	# 536
	.rva	__Z13save_char_objP9char_data	# 537
	.rva	__Z13save_commandsv	# 538
	.rva	__Z13save_holidaysv	# 539
	.rva	__Z13save_loginmsgv	# 540
	.rva	__Z13save_mixturesv	# 541
	.rva	__Z13save_reservedv	# 542
	.rva	__Z13save_timedatav	# 543
	.rva	__Z13season_updatev	# 544
	.rva	__Z13send_to_pagerPKcP9char_data	# 545
	.rva	__Z13simple_damageP9char_dataS0_ii	# 546
	.rva	__Z13sort_reservedP12reserve_data	# 547
	.rva	__Z13spell_obj_inviiP9char_dataPv	# 548
	.rva	__Z13start_editingP9char_dataPKc	# 549
	.rva	__Z13start_fearingP9char_dataS0_	# 550
	.rva	__Z13start_huntingP9char_dataS0_	# 551
	.rva	__Z13stop_fightingP9char_datab	# 552
	.rva	__Z13stop_followerP9char_data	# 553
	.rva	__Z13transfer_charP9char_dataS0_P15room_index_data	# 554
	.rva	__Z13trvobj_createP8obj_data8trv_type	# 555
	.rva	__Z13unlink_socialP11social_type	# 556
	.rva	__Z13update_rosterP9char_data	# 557
	.rva	__Z13update_timersv	# 558
	.rva	__Z13update_userecP7timevalP8timerset	# 559
	.rva	__Z13write_corpsesP9char_dataPKcP8obj_data	# 560
	.rva	__Z14DecreaseEnergyP11WeatherCelli	# 561
	.rva	__Z14DecreasePrecipP11WeatherCelli	# 562
	.rva	__Z14DelOExtraProtoP14obj_index_dataPKc	# 563
	.rva	__Z14IncreaseEnergyP11WeatherCelli	# 564
	.rva	__Z14IncreasePrecipP11WeatherCelli	# 565
	.rva	__Z14RandomizeCellsv	# 566
	.rva	__Z14SetOExtraProtoP14obj_index_dataPKc	# 567
	.rva	__Z14WeatherMessagePKcii	# 568
	.rva	__Z14add_to_wizlistPci	# 569
	.rva	__Z14affect_to_charP9char_dataP11affect_data	# 570
	.rva	__Z14append_to_filePKcS0_	# 571
	.rva	__Z14auction_updatev	# 572
	.rva	__Z14can_learn_langP9char_datai	# 573
	.rva	__Z14can_take_protoP9char_data	# 574
	.rva	__Z14char_from_roomP9char_data	# 575
	.rva	__Z14check_attackerP9char_dataS0_	# 576
	.rva	__Z14check_bad_desci	# 577
	.rva	__Z14check_for_trapP9char_dataP8obj_datai	# 578
	.rva	__Z14check_loginmsgP9char_data	# 579
	.rva	__Z14check_switchesb	# 580
	.rva	__Z14cleanup_memoryv	# 581
	.rva	__Z14comment_removeP9char_dataP9note_data	# 582
	.rva	__Z14count_obj_listP14obj_index_dataP8obj_data	# 583
	.rva	__Z14default_promptP9char_data	# 584
	.rva	__Z14delete_projectP12project_data	# 585
	.rva	__Z14dispel_castingP11affect_dataP9char_dataS2_ib	# 586
	.rva	__Z14display_promptP15descriptor_data	# 587
	.rva	__Z14displaymixtureP9char_dataP12mixture_list	# 588
	.rva	__Z14ext_clear_bitsP18extended_bitvector	# 589
	.rva	__Z14extra_bit_nameP18extended_bitvector	# 590
	.rva	__Z14failed_castingP10skill_typeP9char_dataS2_P8obj_data	# 591
	.rva	__Z14fix_area_exitsP9area_data	# 592
	.rva	__Z14fread_imm_hostP9__sFILE64P13immortal_host	# 593
	.rva	__Z14fread_loginmsgP9__sFILE64	# 594
	.rva	__Z14fread_timedataP9__sFILE64	# 595
	.rva	__Z14fread_variableP9char_dataP9__sFILE64	# 596
	.rva	__Z14free_mssp_infov	# 597
	.rva	__Z14free_teleportsv	# 598
	.rva	__Z14free_watchlistv	# 599
	.rva	__Z14gain_conditionP9char_dataii	# 600
	.rva	__Z14getWeatherCellP9area_data	# 601
	.rva	__Z14get_attackflagPKc	# 602
	.rva	__Z14get_char_worldP9char_dataPKc	# 603
	.rva	__Z14get_hemispherePc	# 604
	.rva	__Z14get_morph_vnumi	# 605
	.rva	__Z14get_obj_numberP8obj_data	# 606
	.rva	__Z14get_obj_weightP8obj_data	# 607
	.rva	__Z14get_repaircostP9char_dataP8obj_data	# 608
	.rva	__Z14get_room_indexi	# 609
	.rva	__Z14hallucinationsP9char_data	# 610
	.rva	__Z14immune_castingP10skill_typeP9char_dataS2_P8obj_data	# 611
	.rva	__Z14isHighPressurei	# 612
	.rva	__Z14isMinorlyHumidi	# 613
	.rva	__Z14isPartlyCloudyi	# 614
	.rva	__Z14is_name_prefixPKcPc	# 615
	.rva	__Z14item_type_nameP8obj_data	# 616
	.rva	__Z14knows_languageP9char_dataiS0_	# 617
	.rva	__Z14liqobj_can_mixP8obj_dataS0_	# 618
	.rva	__Z14load_area_fileP9area_dataPKc	# 619
	.rva	__Z14load_buildlistv	# 620
	.rva	__Z14load_clan_filePKc	# 621
	.rva	__Z14load_mssp_datav	# 622
	.rva	__Z14load_obj_filesv	# 623
	.rva	__Z14load_race_filePKc	# 624
	.rva	__Z14load_watchlistv	# 625
	.rva	__Z14locate_targetsP9char_dataPciPS0_PP8obj_data	# 626
	.rva	__Z14magic_bit_namei	# 627
	.rva	__Z14morph_defaultsP10morph_data	# 628
	.rva	__Z14mpsleep_updatev	# 629
	.rva	__Z14nanny_get_nameP15descriptor_dataPc	# 630
	.rva	__Z14new_descriptori	# 631
	.rva	__Z14number_percentv	# 632
	.rva	__Z14obj_act_updatev	# 633
	.rva	__Z14obj_cast_spelliiP9char_dataS0_P8obj_data	# 634
	.rva	__Z14projectile_hitP9char_dataS0_P8obj_dataS2_s	# 635
	.rva	__Z14pull_type_namei	# 636
	.rva	__Z14repair_one_objP9char_dataS0_P8obj_dataPKciS4_S4_	# 637
	.rva	__Z14save_mssp_infov	# 638
	.rva	__Z14save_watchlistv	# 639
	.rva	__Z14send_mssp_dataP15descriptor_data	# 640
	.rva	__Z14send_rip_titleP9char_data	# 641
	.rva	__Z14set_bexit_flagP9exit_datai	# 642
	.rva	__Z14set_char_colorsP9char_data	# 643
	.rva	__Z14show_conditionP9char_dataS0_	# 644
	.rva	__Z14show_high_hashi	# 645
	.rva	__Z14show_race_lineP9char_dataS0_	# 646
	.rva	__Z14skill_functionPKc	# 647
	.rva	__Z14spell_functionPKc	# 648
	.rva	__Z14subtract_timesP7timevalS0_	# 649
	.rva	__Z14trworld_create8trv_type	# 650
	.rva	__Z14unlink_commandP8cmd_type	# 651
	.rva	__Z14update_handlerv	# 652
	.rva	__Z14write_projectsv	# 653
	.rva	__Z14write_to_pagerP15descriptor_dataPKcj	# 654
	.rva	__Z15add_room_affectP15room_index_dataP9char_databPKc	# 655
	.rva	__Z15affect_bit_nameP18extended_bitvector	# 656
	.rva	__Z15affect_loc_namei	# 657
	.rva	__Z15bfs_clear_queuev	# 658
	.rva	__Z15ch_printf_colorP9char_dataPKcz	# 659
	.rva	__Z15check_alignmentP9char_data	# 660
	.rva	__Z15check_cmd_flagsP9char_dataP8cmd_type	# 661
	.rva	__Z15check_reconnectP15descriptor_dataPKcb	# 662
	.rva	__Z15clean_obj_queuev	# 663
	.rva	__Z15close_all_areasv	# 664
	.rva	__Z15create_new_raceiPc	# 665
	.rva	__Z15default_fpromptP9char_data	# 666
	.rva	__Z15delete_variableP13variable_data	# 667
	.rva	__Z15do_unmorph_charP9char_data	# 668
	.rva	__Z15ext_flag_stringP18extended_bitvectorPKPKc	# 669
	.rva	__Z15ext_remove_bitsP18extended_bitvectorS0_	# 670
	.rva	__Z15ext_toggle_bitsP18extended_bitvectorS0_	# 671
	.rva	__Z15find_first_stepP15room_index_dataS0_i	# 672
	.rva	__Z15find_projectileP9char_datai	# 673
	.rva	__Z15fread_bitvectorP9__sFILE64	# 674
	.rva	__Z15fread_fuss_areaP9area_dataP9__sFILE64	# 675
	.rva	__Z15fread_fuss_exitP9__sFILE64P15room_index_data	# 676
	.rva	__Z15fread_fuss_roomP9__sFILE64P9area_data	# 677
	.rva	__Z15fread_mssp_infoP9__sFILE64	# 678
	.rva	__Z15fread_news_typeP9news_typeP9__sFILE64	# 679
	.rva	__Z15free_all_planesv	# 680
	.rva	__Z15free_liquiddatav	# 681
	.rva	__Z15fwrite_commentsP9char_dataP9__sFILE64	# 682
	.rva	__Z15gather_one_listsiiibPi	# 683
	.rva	__Z15get_chance_verbP8obj_data	# 684
	.rva	__Z15get_defenseflagPKc	# 685
	.rva	__Z15get_exit_numberP15room_index_datai	# 686
	.rva	__Z15get_extra_descrPKcP16extra_descr_data	# 687
	.rva	__Z15hotboot_recoverv	# 688
	.rva	__Z15isBlusteryWindEi	# 689
	.rva	__Z15isBlusteryWindNi	# 690
	.rva	__Z15isBlusteryWindSi	# 691
	.rva	__Z15isBlusteryWindWi	# 692
	.rva	__Z15isExtremelyColdi	# 693
	.rva	__Z15is_name2_prefixPKcS0_	# 694
	.rva	__Z15load_class_filePKc	# 695
	.rva	__Z15load_deity_filePKc	# 696
	.rva	__Z15load_herb_tablev	# 697
	.rva	__Z15load_room_resetP15room_index_dataP9__sFILE64	# 698
	.rva	__Z15load_systemdataP11system_data	# 699
	.rva	__Z15load_weathermapv	# 700
	.rva	__Z15log_printf_plusssPKcz	# 701
	.rva	__Z15log_string_plusPKcss	# 702
	.rva	__Z15make_bloodstainP9char_data	# 703
	.rva	__Z15make_char_morphP10morph_data	# 704
	.rva	__Z15mprog_file_readP14mob_index_dataPKc	# 705
	.rva	__Z15mprog_translatecPcP9char_dataS1_P8obj_dataPKvS1_	# 706
	.rva	__Z15nanny_read_motdP15descriptor_dataPKc	# 707
	.rva	__Z15new_dam_messageP9char_dataS0_ijP8obj_data	# 708
	.rva	__Z15num_rooms_availP9char_data	# 709
	.rva	__Z15number_argumentPKcPc	# 710
	.rva	__Z15oprog_file_readP14obj_index_dataPKc	# 711
	.rva	__Z15personal_lookupP9char_dataPKc	# 712
	.rva	__Z15print_bitvectorP18extended_bitvector	# 713
	.rva	__Z15process_sortingP9area_data	# 714
	.rva	__Z15randomize_exitsP15room_index_datas	# 715
	.rva	__Z15room_act_updatev	# 716
	.rva	__Z15room_is_privateP15room_index_data	# 717
	.rva	__Z15rprog_file_readP15room_index_dataPKc	# 718
	.rva	__Z15save_herb_tablev	# 719
	.rva	__Z15save_weathermapv	# 720
	.rva	__Z15scan_for_victimP9char_dataP9exit_dataPKc	# 721
	.rva	__Z15send_ansi_titleP9char_data	# 722
	.rva	__Z15send_rip_screenP9char_data	# 723
	.rva	__Z15set_pager_colorsP9char_data	# 724
	.rva	__Z15set_pager_inputP15descriptor_dataPc	# 725
	.rva	__Z15translate_exitsP9char_dataP9area_dataP14renumber_areasb	# 726
	.rva	__Z15translate_resetP10reset_dataP14renumber_areas	# 727
	.rva	__Z15trworld_disposePP9trv_world	# 728
	.rva	__Z15update_calendarv	# 729
	.rva	__Z15uphold_supermobPiiPP15room_index_dataP8obj_data	# 730
	.rva	__Z15violence_updatev	# 731
	.rva	__Z15write_area_listv	# 732
	.rva	__Z15write_clan_listv	# 733
	.rva	__Z15write_race_filei	# 734
	.rva	__Z15write_to_bufferP15descriptor_dataPKcj	# 735
	.rva	__Z16DecreaseHumidityP11WeatherCelli	# 736
	.rva	__Z16DecreasePressureP11WeatherCelli	# 737
	.rva	__Z16ExceedsThresholdiii	# 738
	.rva	__Z16IncreaseHumidityP11WeatherCelli	# 739
	.rva	__Z16IncreasePressureP11WeatherCelli	# 740
	.rva	__Z16check_illegal_pkP9char_dataS0_	# 741
	.rva	__Z16check_parse_namePKcb	# 742
	.rva	__Z16check_total_bansP15descriptor_data	# 743
	.rva	__Z16clean_char_queuev	# 744
	.rva	__Z16clean_room_queuev	# 745
	.rva	__Z16clear_char_morphP10char_morph	# 746
	.rva	__Z16create_new_classiPKc	# 747
	.rva	__Z16find_translationiP13renumber_data	# 748
	.rva	__Z16fread_flagstringP9__sFILE64	# 749
	.rva	__Z16fread_memberlistP9clan_dataP9__sFILE64	# 750
	.rva	__Z16fread_morph_dataP9char_dataP9__sFILE64	# 751
	.rva	__Z16free_one_councilP12council_data	# 752
	.rva	__Z16fwrite_bitvectorP18extended_bitvectorP9__sFILE64	# 753
	.rva	__Z16fwrite_fuss_exitP9__sFILE64P9exit_data	# 754
	.rva	__Z16fwrite_fuss_roomP9__sFILE64P15room_index_datab	# 755
	.rva	__Z16fwrite_variablesP9char_dataP9__sFILE64	# 756
	.rva	__Z16get_npc_positionPKc	# 757
	.rva	__Z16get_obj_list_revP9char_dataPKcP8obj_data	# 758
	.rva	__Z16get_ssave_effectPKc	# 759
	.rva	__Z16get_waiting_descP9char_dataPc	# 760
	.rva	__Z16isExtremelyHumidi	# 761
	.rva	__Z16isGaleForceWindEi	# 762
	.rva	__Z16isGaleForceWindNi	# 763
	.rva	__Z16isGaleForceWindSi	# 764
	.rva	__Z16isGaleForceWindWi	# 765
	.rva	__Z16isRainingLightlyi	# 766
	.rva	__Z16isSwelteringHeati	# 767
	.rva	__Z16is_reserved_namePKc	# 768
	.rva	__Z16load_skill_tablev	# 769
	.rva	__Z16mprog_do_commandPKcP9char_dataS2_P8obj_dataPKvS2_bb	# 770
	.rva	__Z16mprog_do_ifcheckPKcP9char_dataS2_P8obj_dataPKvS2_	# 771
	.rva	__Z16mprog_time_checkP9char_dataS0_P8obj_dataPvi	# 772
	.rva	__Z16mprog_write_progP9__sFILE64P13mob_prog_data	# 773
	.rva	__Z16name_stamp_statsP9char_data	# 774
	.rva	__Z16read_char_mobilePc	# 775
	.rva	__Z16read_from_bufferP15descriptor_data	# 776
	.rva	__Z16release_supermobv	# 777
	.rva	__Z16rprog_time_checkP9char_dataS0_P8obj_dataPvi	# 778
	.rva	__Z16save_reset_levelP9__sFILE64P10reset_datai	# 779
	.rva	__Z16save_skill_tablev	# 780
	.rva	__Z16saves_para_petriiP9char_data	# 781
	.rva	__Z16send_ascii_titleP9char_data	# 782
	.rva	__Z16setup_morph_vnumv	# 783
	.rva	__Z16show_colorthemesP9char_data	# 784
	.rva	__Z16smash_tilde_copyPKc	# 785
	.rva	__Z16sort_skill_tablev	# 786
	.rva	__Z16spell_affectchariiP9char_dataPv	# 787
	.rva	__Z16spell_create_mobiiP9char_dataPv	# 788
	.rva	__Z16spell_create_objiiP9char_dataPv	# 789
	.rva	__Z16summon_if_hatingP9char_data	# 790
	.rva	__Z16wipe_area_resetsP9area_data	# 791
	.rva	__Z16write_boards_txtv	# 792
	.rva	__Z16write_class_filei	# 793
	.rva	__Z16write_deity_listv	# 794
	.rva	__Z17ApplyDeltaChangesv	# 795
	.rva	__Z17build_prime_planev	# 796
	.rva	__Z17display_news_typeP9char_dataP9news_typePc	# 797
	.rva	__Z17do_write_imm_hostv	# 798
	.rva	__Z17economize_mobgoldP9char_data	# 799
	.rva	__Z17fread_fuss_affectP9__sFILE64PKc	# 800
	.rva	__Z17fread_fuss_exdescP9__sFILE64	# 801
	.rva	__Z17fread_fuss_mobileP9__sFILE64P9area_data	# 802
	.rva	__Z17fread_fuss_objectP9__sFILE64P9area_data	# 803
	.rva	__Z17free_all_reservedv	# 804
	.rva	__Z17fwrite_memberlistP9__sFILE64P9clan_data	# 805
	.rva	__Z17fwrite_morph_dataP9char_dataP9__sFILE64	# 806
	.rva	__Z17get_log_by_numberP12project_datai	# 807
	.rva	__Z17get_reboot_stringv	# 808
	.rva	__Z17isExtremelyCloudyi	# 809
	.rva	__Z17isModeratelyHumidi	# 810
	.rva	__Z17isRaingingHeavilyi	# 811
	.rva	__Z17isRainingSteadilyi	# 812
	.rva	__Z17is_valid_filenameP9char_dataPKcS2_	# 813
	.rva	__Z17link_news_to_typeP9news_data	# 814
	.rva	__Z17load_council_filePKc	# 815
	.rva	__Z17mobprog_file_readP14mob_index_dataPKc	# 816
	.rva	__Z17mprog_act_triggerPKcP9char_dataS2_P8obj_dataPKv	# 817
	.rva	__Z17nanny_get_new_sexP15descriptor_dataPc	# 818
	.rva	__Z17nanny_press_enterP15descriptor_dataPKc	# 819
	.rva	__Z17objprog_file_readP14obj_index_dataPKc	# 820
	.rva	__Z17oprog_act_triggerPKcP8obj_dataP9char_dataS2_PKv	# 821
	.rva	__Z17oprog_get_triggerP9char_dataP8obj_data	# 822
	.rva	__Z17oprog_sac_triggerP9char_dataP8obj_data	# 823
	.rva	__Z17oprog_use_triggerP9char_dataP8obj_dataS0_S2_	# 824
	.rva	__Z17oprog_zap_triggerP9char_dataP8obj_data	# 825
	.rva	__Z17ranged_got_targetP9char_dataS0_P8obj_dataS2_ssPKcs	# 826
	.rva	__Z17remove_area_namesPKcPc	# 827
	.rva	__Z17remove_bexit_flagP9exit_datai	# 828
	.rva	__Z17rprog_act_triggerPKcP15room_index_dataP9char_dataP8obj_dataPKv	# 829
	.rva	__Z17saves_spell_staffiP9char_data	# 830
	.rva	__Z17show_char_to_charP9char_dataS0_	# 831
	.rva	__Z17show_list_to_charP8obj_dataP9char_databb	# 832
	.rva	__Z17skill_comp_bytypePP10skill_typeS1_	# 833
	.rva	__Z17sort_area_by_nameP9area_data	# 834
	.rva	__Z17spell_area_attackiiP9char_dataPv	# 835
	.rva	__Z17toggle_bexit_flagP9exit_datai	# 836
	.rva	__Z17translate_objvalsP9char_dataP9area_dataP14renumber_areasb	# 837
	.rva	__Z17trworld_obj_checkP8obj_data	# 838
	.rva	__Z17update_room_resetP9char_datab	# 839
	.rva	__Z17validate_spec_funPKc	# 840
	.rva	__Z17write_char_mobileP9char_dataPc	# 841
	.rva	__Z17write_watch_filesP9char_dataP8cmd_typePc	# 842
	.rva	__Z18ClearWeatherDeltasv	# 843
	.rva	__Z18DecreaseCloudCoverP11WeatherCelli	# 844
	.rva	__Z18IncreaseCloudCoverP11WeatherCelli	# 845
	.rva	__Z18copy_buffer_nohashP9char_data	# 846
	.rva	__Z18extract_area_namesPKcPc	# 847
	.rva	__Z18find_skill_of_typeP9char_dataPKcbi	# 848
	.rva	__Z18format_obj_to_charP8obj_dataP9char_datab	# 849
	.rva	__Z18fread_fuss_mobprogP9__sFILE64P13mob_prog_dataP14mob_index_data	# 850
	.rva	__Z18fread_fuss_objprogP9__sFILE64P13mob_prog_dataP14obj_index_data	# 851
	.rva	__Z18free_prog_actlistsv	# 852
	.rva	__Z18free_renumber_dataP13renumber_data	# 853
	.rva	__Z18fwrite_area_headerP9__sFILE64P9area_datab	# 854
	.rva	__Z18fwrite_fuss_affectP9__sFILE64P11affect_data	# 855
	.rva	__Z18fwrite_fuss_exdescP9__sFILE64P16extra_descr_data	# 856
	.rva	__Z18fwrite_fuss_mobileP9__sFILE64P14mob_index_datab	# 857
	.rva	__Z18fwrite_fuss_objectP9__sFILE64P14obj_index_datab	# 858
	.rva	__Z18generate_itemlevelP9area_dataP14obj_index_data	# 859
	.rva	__Z18get_obj_resistanceP8obj_data	# 860
	.rva	__Z18in_magic_containerP8obj_data	# 861
	.rva	__Z18initialize_economyv	# 862
	.rva	__Z18isModeratelyCloudyi	# 863
	.rva	__Z18learn_from_failureP9char_datai	# 864
	.rva	__Z18learn_from_successP9char_datai	# 865
	.rva	__Z18make_new_map_indexi	# 866
	.rva	__Z18mprog_give_triggerP9char_dataS0_P8obj_data	# 867
	.rva	__Z18mprog_hour_triggerP9char_data	# 868
	.rva	__Z18mprog_name_to_typePKc	# 869
	.rva	__Z18mprog_next_commandPc	# 870
	.rva	__Z18mprog_sell_triggerP9char_dataS0_P8obj_data	# 871
	.rva	__Z18mprog_tell_triggerPKcP9char_data	# 872
	.rva	__Z18mprog_time_triggerP9char_data	# 873
	.rva	__Z18mprog_type_to_namei	# 874
	.rva	__Z18nanny_get_new_raceP15descriptor_dataPKc	# 875
	.rva	__Z18oprog_drop_triggerP9char_dataP8obj_data	# 876
	.rva	__Z18oprog_pull_triggerP9char_dataP8obj_data	# 877
	.rva	__Z18oprog_push_triggerP9char_dataP8obj_data	# 878
	.rva	__Z18oprog_wear_triggerP9char_dataP8obj_data	# 879
	.rva	__Z18pager_printf_colorP9char_dataPKcz	# 880
	.rva	__Z18process_compressedP15descriptor_data	# 881
	.rva	__Z18remap_slot_numbersv	# 882
	.rva	__Z18remove_all_rostersP9clan_data	# 883
	.rva	__Z18remove_room_affectP15room_index_dataP9char_databPKc	# 884
	.rva	__Z18roomprog_file_readP15room_index_dataPKc	# 885
	.rva	__Z18rprog_hour_triggerP9char_data	# 886
	.rva	__Z18rprog_rest_triggerP9char_data	# 887
	.rva	__Z18rprog_time_triggerP9char_data	# 888
	.rva	__Z18saves_poison_deathiP9char_data	# 889
	.rva	__Z18send_morph_messageP9char_dataP10morph_datab	# 890
	.rva	__Z18send_to_char_colorPKcP9char_data	# 891
	.rva	__Z18send_to_desc_colorPKcP15descriptor_data	# 892
	.rva	__Z18successful_castingP10skill_typeP9char_dataS2_P8obj_data	# 893
	.rva	__Z18trworld_char_checkP9char_data	# 894
	.rva	__Z18write_council_listv	# 895
	.rva	__Z19DropsBelowThresholdiii	# 896
	.rva	__Z19add_new_room_to_mapP9char_datac	# 897
	.rva	__Z19better_mental_stateP9char_datai	# 898
	.rva	__Z19check_area_conflictP9area_dataii	# 899
	.rva	__Z19fread_fuss_areadataP9__sFILE64P9area_data	# 900
	.rva	__Z19fread_fuss_roomprogP9__sFILE64P13mob_prog_dataP15room_index_data	# 901
	.rva	__Z19fread_string_nohashP9__sFILE64	# 902
	.rva	__Z19get_real_obj_weightP8obj_data	# 903
	.rva	__Z19hallucinated_objectib	# 904
	.rva	__Z19is_attack_supressedP9char_data	# 905
	.rva	__Z19load_smaugwiz_resetP15room_index_dataP9__sFILE64	# 906
	.rva	__Z19mprog_bribe_triggerP9char_dataS0_i	# 907
	.rva	__Z19mprog_death_triggerP9char_dataS0_	# 908
	.rva	__Z19mprog_entry_triggerP9char_data	# 909
	.rva	__Z19mprog_fight_triggerP9char_dataS0_	# 910
	.rva	__Z19mprog_greet_triggerP9char_data	# 911
	.rva	__Z19mprog_keyword_checkPKcS0_	# 912
	.rva	__Z19mprog_percent_checkP9char_dataS0_P8obj_dataPvi	# 913
	.rva	__Z19mprog_read_programsP9__sFILE64P14mob_index_data	# 914
	.rva	__Z19nanny_get_new_classP15descriptor_dataPKc	# 915
	.rva	__Z19oprog_greet_triggerP9char_data	# 916
	.rva	__Z19oprog_percent_checkP9char_dataS0_P8obj_dataPvi	# 917
	.rva	__Z19oprog_read_programsP9__sFILE64P14obj_index_data	# 918
	.rva	__Z19queue_extracted_objP8obj_data	# 919
	.rva	__Z19recursive_note_findP8obj_dataPKc	# 920
	.rva	__Z19renumber_put_resetsP15room_index_data	# 921
	.rva	__Z19rprog_death_triggerP9char_data	# 922
	.rva	__Z19rprog_enter_triggerP9char_data	# 923
	.rva	__Z19rprog_leave_triggerP9char_data	# 924
	.rva	__Z19rprog_percent_checkP9char_dataS0_P8obj_dataPvi	# 925
	.rva	__Z19rprog_read_programsP9__sFILE64P15room_index_data	# 926
	.rva	__Z19rprog_sleep_triggerP9char_data	# 927
	.rva	__Z19save_clan_storeroomP9char_dataP9clan_data	# 928
	.rva	__Z19send_to_pager_colorPKcP9char_data	# 929
	.rva	__Z19show_char_to_char_0P9char_dataS0_	# 930
	.rva	__Z19show_char_to_char_1P9char_dataS0_	# 931
	.rva	__Z19worsen_mental_stateP9char_datai	# 932
	.rva	__Z19write_to_descriptorP15descriptor_dataPKci	# 933
	.rva	__Z20InitializeWeatherMapv	# 934
	.rva	__Z20char_calendar_updatev	# 935
	.rva	__Z20check_area_conflictsii	# 936
	.rva	__Z20check_illegal_pstealP9char_dataS0_	# 937
	.rva	__Z20check_room_for_trapsP9char_datai	# 938
	.rva	__Z20gather_renumber_dataP9area_dataib	# 939
	.rva	__Z20isRainingCatsAndDogsi	# 940
	.rva	__Z20isTorrentialDownpouri	# 941
	.rva	__Z20is_wielding_poisonedP9char_data	# 942
	.rva	__Z20mprog_random_triggerP9char_data	# 943
	.rva	__Z20mprog_script_triggerP9char_data	# 944
	.rva	__Z20mprog_speech_triggerPKcP9char_data	# 945
	.rva	__Z20mprog_wordlist_checkPKcP9char_dataS2_P8obj_dataPKvi	# 946
	.rva	__Z20nifty_is_name_prefixPKcS0_	# 947
	.rva	__Z20oprog_damage_triggerP9char_dataP8obj_data	# 948
	.rva	__Z20oprog_random_triggerP8obj_data	# 949
	.rva	__Z20oprog_remove_triggerP9char_dataP8obj_data	# 950
	.rva	__Z20oprog_repair_triggerP9char_dataP8obj_data	# 951
	.rva	__Z20oprog_script_triggerP8obj_data	# 952
	.rva	__Z20oprog_speech_triggerPKcP9char_data	# 953
	.rva	__Z20oprog_wordlist_checkPKcP9char_dataS2_P8obj_dataPKviS4_	# 954
	.rva	__Z20queue_extracted_charP9char_datab	# 955
	.rva	__Z20read_from_descriptorP15descriptor_data	# 956
	.rva	__Z20rprog_random_triggerP9char_data	# 957
	.rva	__Z20rprog_rfight_triggerP9char_data	# 958
	.rva	__Z20rprog_script_triggerP15room_index_data	# 959
	.rva	__Z20rprog_speech_triggerPKcP9char_data	# 960
	.rva	__Z20rprog_wordlist_checkPKcP9char_dataS2_P8obj_dataPKviP15room_index_data	# 961
	.rva	__Z20tiny_affect_loc_namei	# 962
	.rva	__Z21check_immortal_domainP9char_dataPKc	# 963
	.rva	__Z21get_project_by_numberi	# 964
	.rva	__Z21mprog_command_triggerP9char_dataPc	# 965
	.rva	__Z21oprog_command_triggerP9char_dataPc	# 966
	.rva	__Z21oprog_examine_triggerP9char_dataP8obj_data	# 967
	.rva	__Z21rprog_command_triggerP9char_dataPc	# 968
	.rva	__Z22loot_coins_from_corpseP9char_dataP8obj_data	# 969
	.rva	__Z22mprog_hitprcnt_triggerP9char_dataS0_	# 970
	.rva	__Z22nanny_confirm_new_nameP15descriptor_dataPc	# 971
	.rva	__Z22nanny_get_new_passwordP15descriptor_dataPc	# 972
	.rva	__Z22nanny_get_old_passwordP15descriptor_dataPc	# 973
	.rva	__Z22nanny_get_want_ripansiP15descriptor_dataPKc	# 974
	.rva	__Z23weapon_prof_bonus_checkP9char_dataP8obj_dataPi	# 975
	.rva	__Z23write_to_descriptor_oldiPKci	# 976
	.rva	__Z24EnforceClimateConditionsv	# 977
	.rva	__Z24check_for_area_conflictsP9area_dataii	# 978
	.rva	__Z24process_spell_componentsP9char_datai	# 979
	.rva	__Z26CalculateCellToCellChangesv	# 980
	.rva	__Z26ability_learn_from_successP9char_datai	# 981
	.rva	__Z26nanny_confirm_new_passwordP15descriptor_dataPc	# 982
	.rva	__Z26write_to_descriptor_printfP15descriptor_dataPKcz	# 983
	.rva	__Z28show_visible_affects_to_charP9char_dataS0_	# 984
	.rva	__Z3actsPKcP9char_dataPKvS4_i	# 985
	.rva	__Z3bugPKcz	# 986
	.rva	__Z3mebi	# 987
	.rva	__Z4diceii	# 988
	.rva	__Z4tripP9char_dataS0_	# 989
	.rva	__Z4umaxii	# 990
	.rva	__Z4uminii	# 991
	.rva	__Z5aoranPKc	# 992
	.rva	__Z5isHoti	# 993
	.rva	__Z5myobjP8obj_data	# 994
	.rva	__Z5nannyP15descriptor_dataPc	# 995
	.rva	__Z5paintsP9char_dataPKcz	# 996
	.rva	__Z6c_timeli	# 997
	.rva	__Z6chanceP9char_datas	# 998
	.rva	__Z6damageP9char_dataS0_ii	# 999
	.rva	__Z6disarmP9char_dataS0_	# 1000
	.rva	__Z6dragonP9char_dataPKc	# 1001
	.rva	__Z6isColdi	# 1002
	.rva	__Z6isCooli	# 1003
	.rva	__Z6isWarmi	# 1004
	.rva	__Z6mpcopyP13mob_prog_dataS0_	# 1005
	.rva	__Z6mpeditP9char_dataP13mob_prog_dataiPKc	# 1006
	.rva	__Z6rpeditP9char_dataP13mob_prog_dataiPc	# 1007
	.rva	__Z6urangeiii	# 1008
	.rva	__Z7VAMP_ACP9char_data	# 1009
	.rva	__Z7add_banP9char_dataPKcS2_ii	# 1010
	.rva	__Z7add_dnsPKcS0_	# 1011
	.rva	__Z7advatoiPc	# 1012
	.rva	__Z7boot_dbb	# 1013
	.rva	__Z7can_seeP9char_dataS0_	# 1014
	.rva	__Z7do_noteP9char_dataPKcb	# 1015
	.rva	__Z7getTempP11WeatherCell	# 1016
	.rva	__Z7get_dirPKc	# 1017
	.rva	__Z7get_expP9char_data	# 1018
	.rva	__Z7get_liqPKc	# 1019
	.rva	__Z7get_mixPKc	# 1020
	.rva	__Z7get_objP9char_dataP8obj_dataS2_	# 1021
	.rva	__Z7get_tagP9char_dataPci	# 1022
	.rva	__Z7has_keyP9char_datai	# 1023
	.rva	__Z7init_mmv	# 1024
	.rva	__Z7isHumidi	# 1025
	.rva	__Z7is_namePKcS0_	# 1026
	.rva	__Z7is_safeP9char_dataS0_b	# 1027
	.rva	__Z7one_hitP9char_dataS0_i	# 1028
	.rva	__Z7progbugPKcP9char_data	# 1029
	.rva	__Z7str_cmpPKcS0_	# 1030
	.rva	__Z7str_dupPKc	# 1031
	.rva	__Z8SwapHintP9hint_dataS0_	# 1032
	.rva	__Z8add_charP9char_data	# 1033
	.rva	__Z8add_helpP9help_data	# 1034
	.rva	__Z8add_killP9char_dataS0_	# 1035
	.rva	__Z8apply_acP8obj_datai	# 1036
	.rva	__Z8boot_logPKcz	# 1037
	.rva	__Z8can_dualP9char_data	# 1038
	.rva	__Z8can_postP9char_dataP10board_data	# 1039
	.rva	__Z8can_readP9char_dataP10board_data	# 1040
	.rva	__Z8colorizePKcP15descriptor_data	# 1041
	.rva	__Z8do_morphP9char_dataP10morph_data	# 1042
	.rva	__Z8do_mptagP9char_dataPKc	# 1043
	.rva	__Z8find_objP9char_dataPKcb	# 1044
	.rva	__Z8fix_charP9char_data	# 1045
	.rva	__Z8free_banP8ban_data	# 1046
	.rva	__Z8free_objP8obj_data	# 1047
	.rva	__Z8gain_expP9char_datai	# 1048
	.rva	__Z8getWindXP11WeatherCell	# 1049
	.rva	__Z8getWindYP11WeatherCell	# 1050
	.rva	__Z8get_areaPc	# 1051
	.rva	__Z8get_clanPKc	# 1052
	.rva	__Z8get_costP9char_dataS0_P8obj_datab	# 1053
	.rva	__Z8get_doorPKc	# 1054
	.rva	__Z8get_exitP15room_index_datas	# 1055
	.rva	__Z8get_helpP9char_dataPKc	# 1056
	.rva	__Z8get_hinti	# 1057
	.rva	__Z8get_langPKc	# 1058
	.rva	__Z8get_linePcj	# 1059
	.rva	__Z8get_raceP9char_data	# 1060
	.rva	__Z8get_trapP8obj_data	# 1061
	.rva	__Z8getcolorc	# 1062
	.rva	__Z8help_fixPKc	# 1063
	.rva	__Z8hit_gainP9char_data	# 1064
	.rva	__Z8in_arenaP9char_data	# 1065
	.rva	__Z8isChillyi	# 1066
	.rva	__Z8isCloudyi	# 1067
	.rva	__Z8isFrostyi	# 1068
	.rva	__Z8isStormyi	# 1069
	.rva	__Z8is_name2PKcS0_	# 1070
	.rva	__Z8isavowelc	# 1071
	.rva	__Z8load_dnsv	# 1072
	.rva	__Z8look_skyP9char_data	# 1073
	.rva	__Z8mob_fireP9char_dataPKc	# 1074
	.rva	__Z8multimebiz	# 1075
	.rva	__Z8obj_fallP8obj_datab	# 1076
	.rva	__Z8parsebetiPc	# 1077
	.rva	__Z8raw_killP9char_dataS0_	# 1078
	.rva	__Z8rd_parseP9char_dataiPc	# 1079
	.rva	__Z8read_logP9__sFILE64	# 1080
	.rva	__Z8rev_exits	# 1081
	.rva	__Z8ris_saveP9char_dataii	# 1082
	.rva	__Z8roomdescP9char_data	# 1083
	.rva	__Z8save_dnsv	# 1084
	.rva	__Z8scramblePKci	# 1085
	.rva	__Z8show_mapP9char_dataPc	# 1086
	.rva	__Z8str_freePKc	# 1087
	.rva	__Z8strip_crPKc	# 1088
	.rva	__Z8strlowerPKc	# 1089
	.rva	__Z8strupperPKc	# 1090
	.rva	__Z8tag_charP9char_dataP13variable_datai	# 1091
	.rva	__Z8teleportP9char_dataii	# 1092
	.rva	__Z8wear_objP9char_dataP8obj_databs	# 1093
	.rva	__Z8wordwrapPcs	# 1094
	.rva	__Z9DelOExtraP8obj_dataPKc	# 1095
	.rva	__Z9DelRExtraP15room_index_dataPKc	# 1096
	.rva	__Z9MORPHNAMEP9char_data	# 1097
	.rva	__Z9RelCreate13relation_typePvS0_	# 1098
	.rva	__Z9SetOExtraP8obj_dataPKc	# 1099
	.rva	__Z9SetRExtraP15room_index_dataPKc	# 1100
	.rva	__Z9add_resetP15room_index_dataciiii	# 1101
	.rva	__Z9add_timerP9char_datasiPFvS0_PKcEi	# 1102
	.rva	__Z9can_charmP9char_data	# 1103
	.rva	__Z9can_layerP9char_dataP8obj_datas	# 1104
	.rva	__Z9can_meditP9char_dataP14mob_index_data	# 1105
	.rva	__Z9can_morphP9char_dataP10morph_datab	# 1106
	.rva	__Z9can_oeditP9char_dataP14obj_index_data	# 1107
	.rva	__Z9ch_printfP9char_dataPKcz	# 1108
	.rva	__Z9char_diedP9char_data	# 1109
	.rva	__Z9check_dnsv	# 1110
	.rva	__Z9check_mapPKc	# 1111
	.rva	__Z9check_posP9char_datas	# 1112
	.rva	__Z9chk_watchsPKcS0_	# 1113
	.rva	__Z9clean_mobP14mob_index_data	# 1114
	.rva	__Z9clean_objP14obj_index_data	# 1115
	.rva	__Z9color_strsP9char_data	# 1116
	.rva	__Z9colorcodePKcPcP15descriptor_dataiPi	# 1117
	.rva	__Z9death_cryP9char_data	# 1118
	.rva	__Z9do_mpflagP9char_dataPKc	# 1119
	.rva	__Z9do_owhereP9char_dataPKc	# 1120
	.rva	__Z9do_rpcopyP9char_dataPKc	# 1121
	.rva	__Z9empty_objP8obj_dataS0_P15room_index_data	# 1122
	.rva	__Z9end_timerP7timeval	# 1123
	.rva	__Z9exit_compPP9exit_dataS1_	# 1124
	.rva	__Z9exp_levelP9char_datas	# 1125
	.rva	__Z9find_areaPcPb	# 1126
	.rva	__Z9find_doorP9char_dataPKcb	# 1127
	.rva	__Z9fix_exitsv	# 1128
	.rva	__Z9fold_areaP9area_dataPKcb	# 1129
	.rva	__Z9fread_banP9__sFILE64i	# 1130
	.rva	__Z9fread_cnvP9__sFILE64PP9lcnv_dataS3_	# 1131
	.rva	__Z9fread_dayP12holiday_dataP9__sFILE64	# 1132
	.rva	__Z9fread_dnsP8dns_dataP9__sFILE64	# 1133
	.rva	__Z9fread_objP9char_dataP9__sFILE64s	# 1134
	.rva	__Z9free_bansv	# 1135
	.rva	__Z9free_charP9char_data	# 1136
	.rva	__Z9free_descP15descriptor_data	# 1137
	.rva	__Z9free_gameP15game_board_data	# 1138
	.rva	__Z9free_helpP9help_data	# 1139
	.rva	__Z9free_noteP9note_data	# 1140
	.rva	__Z9game_loopv	# 1141
	.rva	__Z9getEnergyP11WeatherCell	# 1142
	.rva	__Z9getPrecipP11WeatherCell	# 1143
	.rva	__Z9get_aflagPKc	# 1144
	.rva	__Z9get_atypePKc	# 1145
	.rva	__Z9get_boardP8obj_data	# 1146
	.rva	__Z9get_classP9char_data	# 1147
	.rva	__Z9get_colorPKc	# 1148
	.rva	__Z9get_deityPKc	# 1149
	.rva	__Z9get_exitsP9char_data	# 1150
	.rva	__Z9get_morphPKc	# 1151
	.rva	__Z9get_oflagPKc	# 1152
	.rva	__Z9get_otypePKc	# 1153
	.rva	__Z9get_rflagPKc	# 1154
	.rva	__Z9get_sflagPKc	# 1155
	.rva	__Z9get_skillPKc	# 1156
	.rva	__Z9get_ssavePKc	# 1157
	.rva	__Z9get_timerP9char_datas	# 1158
	.rva	__Z9get_trustP9char_data	# 1159
	.rva	__Z9get_wflagPKc	# 1160
	.rva	__Z9grab_newsP9news_typePKc	# 1161
	.rva	__Z9grab_wordPcS_	# 1162
	.rva	__Z9hash_dumpi	# 1163
	.rva	__Z9instaroomP15room_index_datab	# 1164
	.rva	__Z9interpretP9char_dataPKc	# 1165
	.rva	__Z9interpretP9char_dataPc	# 1166
	.rva	__Z9isMistingi	# 1167
	.rva	__Z9isPouringi	# 1168
	.rva	__Z9isRainingi	# 1169
	.rva	__Z9isVeryHoti	# 1170
	.rva	__Z9is_hatingP9char_dataS0_	# 1171
	.rva	__Z9is_immuneP9char_datas	# 1172
	.rva	__Z9is_numberPKc	# 1173
	.rva	__Z9level_expP9char_datai	# 1174
	.rva	__Z9load_areaP9__sFILE64i	# 1175
	.rva	__Z9load_hintv	# 1176
	.rva	__Z9load_newsv	# 1177
	.rva	__Z9make_exitP15room_index_dataS0_s	# 1178
	.rva	__Z9make_fireP15room_index_datas	# 1179
	.rva	__Z9make_roomiP9area_data	# 1180
	.rva	__Z9make_trapiiii	# 1181
	.rva	__Z9mana_gainP9char_data	# 1182
	.rva	__Z9map_exitsP9char_dataP15room_index_dataiii	# 1183
	.rva	__Z9map_statsP9char_dataPiS1_S1_	# 1184
	.rva	__Z9move_charP9char_dataP9exit_datai	# 1185
	.rva	__Z9move_gainP9char_data	# 1186
	.rva	__Z9multi_hitP9char_dataS0_i	# 1187
	.rva	__Z9num_puncti	# 1188
	.rva	__Z9number_mmv	# 1189
	.rva	__Z9obj_shortP8obj_data	# 1190
	.rva	__Z9prune_dnsv	# 1191
	.rva	__Z9pullcheckP9char_datai	# 1192
	.rva	__Z9read_hintPcP9__sFILE64	# 1193
	.rva	__Z9read_noteP9__sFILE64	# 1194
	.rva	__Z9save_clanP9clan_data	# 1195
	.rva	__Z9save_newsv	# 1196
	.rva	__Z9say_spellP9char_datai	# 1197
	.rva	__Z9set_alarml	# 1198
	.rva	__Z9set_titleP9char_dataPKc	# 1199
	.rva	__Z9show_bansP9char_datai	# 1200
	.rva	__Z9show_fileP9char_dataPKc	# 1201
	.rva	__Z9show_hashi	# 1202
	.rva	__Z9show_msspP9char_data	# 1203
	.rva	__Z9sort_areaP9area_datab	# 1204
	.rva	__Z9split_objP8obj_datai	# 1205
	.rva	__Z9str_allocPKc	# 1206
	.rva	__Z9str_infixPKcS0_	# 1207
	.rva	__Z9towizfilePKc	# 1208
	.rva	__Z9translateiPKcS0_	# 1209
	.rva	__Z9whatColorPcS_	# 1210
	.rva	__Z9will_fallP9char_datai	# 1211
	.rva	__ZTI10board_data	# 1212
	.rva	__ZTI10char_morph	# 1213
	.rva	__ZTI10class_type	# 1214
	.rva	__ZTI10deity_data	# 1215
	.rva	__ZTI10morph_data	# 1216
	.rva	__ZTI10plane_data	# 1217
	.rva	__ZTI10reset_data	# 1218
	.rva	__ZTI10skill_type	# 1219
	.rva	__ZTI10timer_data	# 1220
	.rva	__ZTI10watch_data	# 1221
	.rva	__ZTI10z_stream_s	# 1222
	.rva	__ZTI11affect_data	# 1223
	.rva	__ZTI11editor_data	# 1224
	.rva	__ZTI11ignore_data	# 1225
	.rva	__ZTI11roster_data	# 1226
	.rva	__ZTI11social_type	# 1227
	.rva	__ZTI12auction_data	# 1228
	.rva	__ZTI12council_data	# 1229
	.rva	__ZTI12holiday_data	# 1230
	.rva	__ZTI12liquid_table	# 1231
	.rva	__ZTI12mixture_list	# 1232
	.rva	__ZTI12mpsleep_data	# 1233
	.rva	__ZTI12project_data	# 1234
	.rva	__ZTI12reserve_data	# 1235
	.rva	__ZTI12smaug_affect	# 1236
	.rva	__ZTI12specfun_list	# 1237
	.rva	__ZTI13act_prog_data	# 1238
	.rva	__ZTI13fighting_data	# 1239
	.rva	__ZTI13immortal_host	# 1240
	.rva	__ZTI13mob_prog_data	# 1241
	.rva	__ZTI13nuisance_data	# 1242
	.rva	__ZTI13renumber_data	# 1243
	.rva	__ZTI13teleport_data	# 1244
	.rva	__ZTI13variable_data	# 1245
	.rva	__ZTI14hunt_hate_fear	# 1246
	.rva	__ZTI14ipcompare_data	# 1247
	.rva	__ZTI14mob_index_data	# 1248
	.rva	__ZTI14obj_index_data	# 1249
	.rva	__ZTI14renumber_areas	# 1250
	.rva	__ZTI15descriptor_data	# 1251
	.rva	__ZTI15game_board_data	# 1252
	.rva	__ZTI15repairshop_data	# 1253
	.rva	__ZTI15room_index_data	# 1254
	.rva	__ZTI16extra_descr_data	# 1255
	.rva	__ZTI17mob_prog_act_list	# 1256
	.rva	__ZTI19extracted_char_data	# 1257
	.rva	__ZTI6wizent	# 1258
	.rva	__ZTI7pc_data	# 1259
	.rva	__ZTI7whogr_s	# 1260
	.rva	__ZTI8ban_data	# 1261
	.rva	__ZTI8cmd_type	# 1262
	.rva	__ZTI8dns_data	# 1263
	.rva	__ZTI8obj_data	# 1264
	.rva	__ZTI8rel_data	# 1265
	.rva	__ZTI8who_data	# 1266
	.rva	__ZTI9area_data	# 1267
	.rva	__ZTI9char_data	# 1268
	.rva	__ZTI9clan_data	# 1269
	.rva	__ZTI9exit_data	# 1270
	.rva	__ZTI9help_data	# 1271
	.rva	__ZTI9hint_data	# 1272
	.rva	__ZTI9lang_data	# 1273
	.rva	__ZTI9lcnv_data	# 1274
	.rva	__ZTI9lmsg_data	# 1275
	.rva	__ZTI9mccp_data	# 1276
	.rva	__ZTI9mssp_info	# 1277
	.rva	__ZTI9news_data	# 1278
	.rva	__ZTI9news_type	# 1279
	.rva	__ZTI9note_data	# 1280
	.rva	__ZTI9race_type	# 1281
	.rva	__ZTI9shop_data	# 1282
	.rva	__ZTIP10board_data	# 1283
	.rva	__ZTIP10char_morph	# 1284
	.rva	__ZTIP10class_type	# 1285
	.rva	__ZTIP10deity_data	# 1286
	.rva	__ZTIP10morph_data	# 1287
	.rva	__ZTIP10plane_data	# 1288
	.rva	__ZTIP10reset_data	# 1289
	.rva	__ZTIP10skill_type	# 1290
	.rva	__ZTIP10timer_data	# 1291
	.rva	__ZTIP10watch_data	# 1292
	.rva	__ZTIP10z_stream_s	# 1293
	.rva	__ZTIP11affect_data	# 1294
	.rva	__ZTIP11editor_data	# 1295
	.rva	__ZTIP11ignore_data	# 1296
	.rva	__ZTIP11roster_data	# 1297
	.rva	__ZTIP11social_type	# 1298
	.rva	__ZTIP12auction_data	# 1299
	.rva	__ZTIP12council_data	# 1300
	.rva	__ZTIP12holiday_data	# 1301
	.rva	__ZTIP12liquid_table	# 1302
	.rva	__ZTIP12mixture_list	# 1303
	.rva	__ZTIP12mpsleep_data	# 1304
	.rva	__ZTIP12project_data	# 1305
	.rva	__ZTIP12reserve_data	# 1306
	.rva	__ZTIP12smaug_affect	# 1307
	.rva	__ZTIP12specfun_list	# 1308
	.rva	__ZTIP13act_prog_data	# 1309
	.rva	__ZTIP13fighting_data	# 1310
	.rva	__ZTIP13immortal_host	# 1311
	.rva	__ZTIP13mob_prog_data	# 1312
	.rva	__ZTIP13nuisance_data	# 1313
	.rva	__ZTIP13renumber_data	# 1314
	.rva	__ZTIP13teleport_data	# 1315
	.rva	__ZTIP13variable_data	# 1316
	.rva	__ZTIP14hunt_hate_fear	# 1317
	.rva	__ZTIP14ipcompare_data	# 1318
	.rva	__ZTIP14mob_index_data	# 1319
	.rva	__ZTIP14obj_index_data	# 1320
	.rva	__ZTIP14renumber_areas	# 1321
	.rva	__ZTIP15descriptor_data	# 1322
	.rva	__ZTIP15game_board_data	# 1323
	.rva	__ZTIP15repairshop_data	# 1324
	.rva	__ZTIP15room_index_data	# 1325
	.rva	__ZTIP16extra_descr_data	# 1326
	.rva	__ZTIP17mob_prog_act_list	# 1327
	.rva	__ZTIP19extracted_char_data	# 1328
	.rva	__ZTIP6wizent	# 1329
	.rva	__ZTIP7pc_data	# 1330
	.rva	__ZTIP7whogr_s	# 1331
	.rva	__ZTIP8ban_data	# 1332
	.rva	__ZTIP8cmd_type	# 1333
	.rva	__ZTIP8dns_data	# 1334
	.rva	__ZTIP8obj_data	# 1335
	.rva	__ZTIP8rel_data	# 1336
	.rva	__ZTIP8who_data	# 1337
	.rva	__ZTIP9area_data	# 1338
	.rva	__ZTIP9char_data	# 1339
	.rva	__ZTIP9clan_data	# 1340
	.rva	__ZTIP9exit_data	# 1341
	.rva	__ZTIP9help_data	# 1342
	.rva	__ZTIP9hint_data	# 1343
	.rva	__ZTIP9lang_data	# 1344
	.rva	__ZTIP9lcnv_data	# 1345
	.rva	__ZTIP9lmsg_data	# 1346
	.rva	__ZTIP9mccp_data	# 1347
	.rva	__ZTIP9mssp_info	# 1348
	.rva	__ZTIP9news_data	# 1349
	.rva	__ZTIP9news_type	# 1350
	.rva	__ZTIP9note_data	# 1351
	.rva	__ZTIP9race_type	# 1352
	.rva	__ZTIP9shop_data	# 1353
	.rva	__ZTIPPKc	# 1354
	.rva	__ZTIPPc	# 1355
	.rva	__ZTS10board_data	# 1356
	.rva	__ZTS10char_morph	# 1357
	.rva	__ZTS10class_type	# 1358
	.rva	__ZTS10deity_data	# 1359
	.rva	__ZTS10morph_data	# 1360
	.rva	__ZTS10plane_data	# 1361
	.rva	__ZTS10reset_data	# 1362
	.rva	__ZTS10skill_type	# 1363
	.rva	__ZTS10timer_data	# 1364
	.rva	__ZTS10watch_data	# 1365
	.rva	__ZTS10z_stream_s	# 1366
	.rva	__ZTS11affect_data	# 1367
	.rva	__ZTS11editor_data	# 1368
	.rva	__ZTS11ignore_data	# 1369
	.rva	__ZTS11roster_data	# 1370
	.rva	__ZTS11social_type	# 1371
	.rva	__ZTS12auction_data	# 1372
	.rva	__ZTS12council_data	# 1373
	.rva	__ZTS12holiday_data	# 1374
	.rva	__ZTS12liquid_table	# 1375
	.rva	__ZTS12mixture_list	# 1376
	.rva	__ZTS12mpsleep_data	# 1377
	.rva	__ZTS12project_data	# 1378
	.rva	__ZTS12reserve_data	# 1379
	.rva	__ZTS12smaug_affect	# 1380
	.rva	__ZTS12specfun_list	# 1381
	.rva	__ZTS13act_prog_data	# 1382
	.rva	__ZTS13fighting_data	# 1383
	.rva	__ZTS13immortal_host	# 1384
	.rva	__ZTS13mob_prog_data	# 1385
	.rva	__ZTS13nuisance_data	# 1386
	.rva	__ZTS13renumber_data	# 1387
	.rva	__ZTS13teleport_data	# 1388
	.rva	__ZTS13variable_data	# 1389
	.rva	__ZTS14hunt_hate_fear	# 1390
	.rva	__ZTS14ipcompare_data	# 1391
	.rva	__ZTS14mob_index_data	# 1392
	.rva	__ZTS14obj_index_data	# 1393
	.rva	__ZTS14renumber_areas	# 1394
	.rva	__ZTS15descriptor_data	# 1395
	.rva	__ZTS15game_board_data	# 1396
	.rva	__ZTS15repairshop_data	# 1397
	.rva	__ZTS15room_index_data	# 1398
	.rva	__ZTS16extra_descr_data	# 1399
	.rva	__ZTS17mob_prog_act_list	# 1400
	.rva	__ZTS19extracted_char_data	# 1401
	.rva	__ZTS6wizent	# 1402
	.rva	__ZTS7pc_data	# 1403
	.rva	__ZTS7whogr_s	# 1404
	.rva	__ZTS8ban_data	# 1405
	.rva	__ZTS8cmd_type	# 1406
	.rva	__ZTS8dns_data	# 1407
	.rva	__ZTS8obj_data	# 1408
	.rva	__ZTS8rel_data	# 1409
	.rva	__ZTS8who_data	# 1410
	.rva	__ZTS9area_data	# 1411
	.rva	__ZTS9char_data	# 1412
	.rva	__ZTS9clan_data	# 1413
	.rva	__ZTS9exit_data	# 1414
	.rva	__ZTS9help_data	# 1415
	.rva	__ZTS9hint_data	# 1416
	.rva	__ZTS9lang_data	# 1417
	.rva	__ZTS9lcnv_data	# 1418
	.rva	__ZTS9lmsg_data	# 1419
	.rva	__ZTS9mccp_data	# 1420
	.rva	__ZTS9mssp_info	# 1421
	.rva	__ZTS9news_data	# 1422
	.rva	__ZTS9news_type	# 1423
	.rva	__ZTS9note_data	# 1424
	.rva	__ZTS9race_type	# 1425
	.rva	__ZTS9shop_data	# 1426
	.rva	__ZTSP10board_data	# 1427
	.rva	__ZTSP10char_morph	# 1428
	.rva	__ZTSP10class_type	# 1429
	.rva	__ZTSP10deity_data	# 1430
	.rva	__ZTSP10morph_data	# 1431
	.rva	__ZTSP10plane_data	# 1432
	.rva	__ZTSP10reset_data	# 1433
	.rva	__ZTSP10skill_type	# 1434
	.rva	__ZTSP10timer_data	# 1435
	.rva	__ZTSP10watch_data	# 1436
	.rva	__ZTSP10z_stream_s	# 1437
	.rva	__ZTSP11affect_data	# 1438
	.rva	__ZTSP11editor_data	# 1439
	.rva	__ZTSP11ignore_data	# 1440
	.rva	__ZTSP11roster_data	# 1441
	.rva	__ZTSP11social_type	# 1442
	.rva	__ZTSP12auction_data	# 1443
	.rva	__ZTSP12council_data	# 1444
	.rva	__ZTSP12holiday_data	# 1445
	.rva	__ZTSP12liquid_table	# 1446
	.rva	__ZTSP12mixture_list	# 1447
	.rva	__ZTSP12mpsleep_data	# 1448
	.rva	__ZTSP12project_data	# 1449
	.rva	__ZTSP12reserve_data	# 1450
	.rva	__ZTSP12smaug_affect	# 1451
	.rva	__ZTSP12specfun_list	# 1452
	.rva	__ZTSP13act_prog_data	# 1453
	.rva	__ZTSP13fighting_data	# 1454
	.rva	__ZTSP13immortal_host	# 1455
	.rva	__ZTSP13mob_prog_data	# 1456
	.rva	__ZTSP13nuisance_data	# 1457
	.rva	__ZTSP13renumber_data	# 1458
	.rva	__ZTSP13teleport_data	# 1459
	.rva	__ZTSP13variable_data	# 1460
	.rva	__ZTSP14hunt_hate_fear	# 1461
	.rva	__ZTSP14ipcompare_data	# 1462
	.rva	__ZTSP14mob_index_data	# 1463
	.rva	__ZTSP14obj_index_data	# 1464
	.rva	__ZTSP14renumber_areas	# 1465
	.rva	__ZTSP15descriptor_data	# 1466
	.rva	__ZTSP15game_board_data	# 1467
	.rva	__ZTSP15repairshop_data	# 1468
	.rva	__ZTSP15room_index_data	# 1469
	.rva	__ZTSP16extra_descr_data	# 1470
	.rva	__ZTSP17mob_prog_act_list	# 1471
	.rva	__ZTSP19extracted_char_data	# 1472
	.rva	__ZTSP6wizent	# 1473
	.rva	__ZTSP7pc_data	# 1474
	.rva	__ZTSP7whogr_s	# 1475
	.rva	__ZTSP8ban_data	# 1476
	.rva	__ZTSP8cmd_type	# 1477
	.rva	__ZTSP8dns_data	# 1478
	.rva	__ZTSP8obj_data	# 1479
	.rva	__ZTSP8rel_data	# 1480
	.rva	__ZTSP8who_data	# 1481
	.rva	__ZTSP9area_data	# 1482
	.rva	__ZTSP9char_data	# 1483
	.rva	__ZTSP9clan_data	# 1484
	.rva	__ZTSP9exit_data	# 1485
	.rva	__ZTSP9help_data	# 1486
	.rva	__ZTSP9hint_data	# 1487
	.rva	__ZTSP9lang_data	# 1488
	.rva	__ZTSP9lcnv_data	# 1489
	.rva	__ZTSP9lmsg_data	# 1490
	.rva	__ZTSP9mccp_data	# 1491
	.rva	__ZTSP9mssp_info	# 1492
	.rva	__ZTSP9news_data	# 1493
	.rva	__ZTSP9news_type	# 1494
	.rva	__ZTSP9note_data	# 1495
	.rva	__ZTSP9race_type	# 1496
	.rva	__ZTSP9shop_data	# 1497
	.rva	__ZTSPPKc	# 1498
	.rva	__ZTSPPc	# 1499
	.rva	_a_flags	# 1500
	.rva	_a_types	# 1501
	.rva	_act_flags	# 1502
	.rva	_alarm_section	# 1503
	.rva	_area_flags	# 1504
	.rva	_attack_flags	# 1505
	.rva	_attack_table	# 1506
	.rva	_auction	# 1507
	.rva	_big_pieces	# 1508
	.rva	_boot_time	# 1509
	.rva	_cha_app	# 1510
	.rva	_child_exit_status	# 1511
	.rva	_class_table	# 1512
	.rva	_cmd_flag_buf	# 1513
	.rva	_cmd_flags	# 1514
	.rva	_command_hash	# 1515
	.rva	_con_app	# 1516
	.rva	_control	# 1517
	.rva	_corpse_descs	# 1518
	.rva	_cur_char	# 1519
	.rva	_cur_char_died	# 1520
	.rva	_cur_obj	# 1521
	.rva	_cur_obj_extracted	# 1522
	.rva	_cur_obj_serial	# 1523
	.rva	_cur_qchars	# 1524
	.rva	_cur_qobjs	# 1525
	.rva	_cur_room	# 1526
	.rva	_current_mpsleep	# 1527
	.rva	_current_time	# 1528
	.rva	_d_next	# 1529
	.rva	_day_name	# 1530
	.rva	_default_set	# 1531
	.rva	_defense_flags	# 1532
	.rva	_dex_app	# 1533
	.rva	_dir_name	# 1534
	.rva	_disease_table	# 1535
	.rva	_dmap	# 1536
	.rva	_do_aassign	# 1537
	.rva	_do_add_imm_host	# 1538
	.rva	_do_advance	# 1539
	.rva	_do_affected	# 1540
	.rva	_do_afk	# 1541
	.rva	_do_aid	# 1542
	.rva	_do_alinks	# 1543
	.rva	_do_allow	# 1544
	.rva	_do_ansi	# 1545
	.rva	_do_answer	# 1546
	.rva	_do_apply	# 1547
	.rva	_do_appraise	# 1548
	.rva	_do_areas	# 1549
	.rva	_do_aset	# 1550
	.rva	_do_ask	# 1551
	.rva	_do_astat	# 1552
	.rva	_do_at	# 1553
	.rva	_do_atobj	# 1554
	.rva	_do_auction	# 1555
	.rva	_do_authorize	# 1556
	.rva	_do_avtalk	# 1557
	.rva	_do_backstab	# 1558
	.rva	_do_balzhur	# 1559
	.rva	_do_bamfin	# 1560
	.rva	_do_bamfout	# 1561
	.rva	_do_ban	# 1562
	.rva	_do_bash	# 1563
	.rva	_do_bashdoor	# 1564
	.rva	_do_berserk	# 1565
	.rva	_do_bestow	# 1566
	.rva	_do_bestowarea	# 1567
	.rva	_do_bio	# 1568
	.rva	_do_bite	# 1569
	.rva	_do_bloodlet	# 1570
	.rva	_do_boards	# 1571
	.rva	_do_bodybag	# 1572
	.rva	_do_bolt	# 1573
	.rva	_do_brandish	# 1574
	.rva	_do_brew	# 1575
	.rva	_do_broach	# 1576
	.rva	_do_bset	# 1577
	.rva	_do_bstat	# 1578
	.rva	_do_bug	# 1579
	.rva	_do_bury	# 1580
	.rva	_do_buy	# 1581
	.rva	_do_cache	# 1582
	.rva	_do_cast	# 1583
	.rva	_do_cedit	# 1584
	.rva	_do_channels	# 1585
	.rva	_do_chat	# 1586
	.rva	_do_check_vnums	# 1587
	.rva	_do_chess	# 1588
	.rva	_do_circle	# 1589
	.rva	_do_clans	# 1590
	.rva	_do_clantalk	# 1591
	.rva	_do_claw	# 1592
	.rva	_do_climb	# 1593
	.rva	_do_close	# 1594
	.rva	_do_cmdtable	# 1595
	.rva	_do_color	# 1596
	.rva	_do_commands	# 1597
	.rva	_do_comment	# 1598
	.rva	_do_compare	# 1599
	.rva	_do_config	# 1600
	.rva	_do_consider	# 1601
	.rva	_do_cook	# 1602
	.rva	_do_council_induct	# 1603
	.rva	_do_council_outcast	# 1604
	.rva	_do_councils	# 1605
	.rva	_do_counciltalk	# 1606
	.rva	_do_credits	# 1607
	.rva	_do_cset	# 1608
	.rva	_do_deities	# 1609
	.rva	_do_delay	# 1610
	.rva	_do_deny	# 1611
	.rva	_do_description	# 1612
	.rva	_do_destro	# 1613
	.rva	_do_destroy	# 1614
	.rva	_do_detrap	# 1615
	.rva	_do_devote	# 1616
	.rva	_do_dig	# 1617
	.rva	_do_disarm	# 1618
	.rva	_do_disconnect	# 1619
	.rva	_do_dismiss	# 1620
	.rva	_do_dismount	# 1621
	.rva	_do_dmesg	# 1622
	.rva	_do_dnd	# 1623
	.rva	_do_down	# 1624
	.rva	_do_drag	# 1625
	.rva	_do_drink	# 1626
	.rva	_do_drop	# 1627
	.rva	_do_east	# 1628
	.rva	_do_eat	# 1629
	.rva	_do_ech	# 1630
	.rva	_do_echo	# 1631
	.rva	_do_editnews	# 1632
	.rva	_do_elevate	# 1633
	.rva	_do_emote	# 1634
	.rva	_do_empty	# 1635
	.rva	_do_enter	# 1636
	.rva	_do_equipment	# 1637
	.rva	_do_examine	# 1638
	.rva	_do_exits	# 1639
	.rva	_do_feed	# 1640
	.rva	_do_fill	# 1641
	.rva	_do_findexit	# 1642
	.rva	_do_findnote	# 1643
	.rva	_do_fire	# 1644
	.rva	_do_fixchar	# 1645
	.rva	_do_fixed	# 1646
	.rva	_do_flee	# 1647
	.rva	_do_foldarea	# 1648
	.rva	_do_follow	# 1649
	.rva	_do_for	# 1650
	.rva	_do_force	# 1651
	.rva	_do_forceclose	# 1652
	.rva	_do_form_password	# 1653
	.rva	_do_fprompt	# 1654
	.rva	_do_fquit	# 1655
	.rva	_do_freeze	# 1656
	.rva	_do_fshow	# 1657
	.rva	_do_get	# 1658
	.rva	_do_gfighting	# 1659
	.rva	_do_give	# 1660
	.rva	_do_glance	# 1661
	.rva	_do_gold	# 1662
	.rva	_do_goto	# 1663
	.rva	_do_gouge	# 1664
	.rva	_do_group	# 1665
	.rva	_do_gtell	# 1666
	.rva	_do_guilds	# 1667
	.rva	_do_guildtalk	# 1668
	.rva	_do_gwhere	# 1669
	.rva	_do_hedit	# 1670
	.rva	_do_hell	# 1671
	.rva	_do_help	# 1672
	.rva	_do_hide	# 1673
	.rva	_do_hintedit	# 1674
	.rva	_do_hitall	# 1675
	.rva	_do_hl	# 1676
	.rva	_do_hlist	# 1677
	.rva	_do_holidays	# 1678
	.rva	_do_holylight	# 1679
	.rva	_do_homepage	# 1680
	.rva	_do_hotboot	# 1681
	.rva	_do_hset	# 1682
	.rva	_do_ide	# 1683
	.rva	_do_idea	# 1684
	.rva	_do_ignore	# 1685
	.rva	_do_imm_morph	# 1686
	.rva	_do_imm_unmorph	# 1687
	.rva	_do_immortalize	# 1688
	.rva	_do_immtalk	# 1689
	.rva	_do_induct	# 1690
	.rva	_do_installarea	# 1691
	.rva	_do_instaroom	# 1692
	.rva	_do_instazone	# 1693
	.rva	_do_inventory	# 1694
	.rva	_do_invis	# 1695
	.rva	_do_ipcompare	# 1696
	.rva	_do_khistory	# 1697
	.rva	_do_kick	# 1698
	.rva	_do_kill	# 1699
	.rva	_do_languages	# 1700
	.rva	_do_last	# 1701
	.rva	_do_laws	# 1702
	.rva	_do_leave	# 1703
	.rva	_do_level	# 1704
	.rva	_do_light	# 1705
	.rva	_do_list	# 1706
	.rva	_do_litterbug	# 1707
	.rva	_do_loadarea	# 1708
	.rva	_do_loadup	# 1709
	.rva	_do_lock	# 1710
	.rva	_do_log	# 1711
	.rva	_do_look	# 1712
	.rva	_do_low_purge	# 1713
	.rva	_do_mailroom	# 1714
	.rva	_do_make	# 1715
	.rva	_do_makeboard	# 1716
	.rva	_do_makeclan	# 1717
	.rva	_do_makecouncil	# 1718
	.rva	_do_makedeity	# 1719
	.rva	_do_makerepair	# 1720
	.rva	_do_makeshop	# 1721
	.rva	_do_makewizlist	# 1722
	.rva	_do_mapout	# 1723
	.rva	_do_mcreate	# 1724
	.rva	_do_mdelete	# 1725
	.rva	_do_memory	# 1726
	.rva	_do_mfind	# 1727
	.rva	_do_minvoke	# 1728
	.rva	_do_mistwalk	# 1729
	.rva	_do_mix	# 1730
	.rva	_do_mlist	# 1731
	.rva	_do_morphcreate	# 1732
	.rva	_do_morphdestroy	# 1733
	.rva	_do_morphlist	# 1734
	.rva	_do_morphset	# 1735
	.rva	_do_morphstat	# 1736
	.rva	_do_mortalize	# 1737
	.rva	_do_mount	# 1738
	.rva	_do_mp_close_passage	# 1739
	.rva	_do_mp_damage	# 1740
	.rva	_do_mp_deposit	# 1741
	.rva	_do_mp_fill_in	# 1742
	.rva	_do_mp_log	# 1743
	.rva	_do_mp_open_passage	# 1744
	.rva	_do_mp_practice	# 1745
	.rva	_do_mp_restore	# 1746
	.rva	_do_mp_slay	# 1747
	.rva	_do_mp_withdraw	# 1748
	.rva	_do_mpadvance	# 1749
	.rva	_do_mpapply	# 1750
	.rva	_do_mpapplyb	# 1751
	.rva	_do_mpasound	# 1752
	.rva	_do_mpasupress	# 1753
	.rva	_do_mpat	# 1754
	.rva	_do_mpbodybag	# 1755
	.rva	_do_mpcopy	# 1756
	.rva	_do_mpdelay	# 1757
	.rva	_do_mpdream	# 1758
	.rva	_do_mpecho	# 1759
	.rva	_do_mpechoaround	# 1760
	.rva	_do_mpechoat	# 1761
	.rva	_do_mpechozone	# 1762
	.rva	_do_mpedit	# 1763
	.rva	_do_mpfavor	# 1764
	.rva	_do_mpfear	# 1765
	.rva	_do_mpforce	# 1766
	.rva	_do_mpgoto	# 1767
	.rva	_do_mphate	# 1768
	.rva	_do_mphunt	# 1769
	.rva	_do_mpinvis	# 1770
	.rva	_do_mpjunk	# 1771
	.rva	_do_mpkill	# 1772
	.rva	_do_mpmload	# 1773
	.rva	_do_mpmorph	# 1774
	.rva	_do_mpmset	# 1775
	.rva	_do_mpmusic	# 1776
	.rva	_do_mpmusicaround	# 1777
	.rva	_do_mpmusicat	# 1778
	.rva	_do_mpnothing	# 1779
	.rva	_do_mpnuisance	# 1780
	.rva	_do_mpoload	# 1781
	.rva	_do_mpoowner	# 1782
	.rva	_do_mposet	# 1783
	.rva	_do_mppardon	# 1784
	.rva	_do_mppeace	# 1785
	.rva	_do_mppkset	# 1786
	.rva	_do_mppurge	# 1787
	.rva	_do_mpscatter	# 1788
	.rva	_do_mpsound	# 1789
	.rva	_do_mpsoundaround	# 1790
	.rva	_do_mpsoundat	# 1791
	.rva	_do_mpstat	# 1792
	.rva	_do_mptransfer	# 1793
	.rva	_do_mpunmorph	# 1794
	.rva	_do_mpunnuisance	# 1795
	.rva	_do_mset	# 1796
	.rva	_do_mstat	# 1797
	.rva	_do_murde	# 1798
	.rva	_do_murder	# 1799
	.rva	_do_muse	# 1800
	.rva	_do_music	# 1801
	.rva	_do_mwhere	# 1802
	.rva	_do_name	# 1803
	.rva	_do_newbiechat	# 1804
	.rva	_do_newbieset	# 1805
	.rva	_do_newzones	# 1806
	.rva	_do_noemote	# 1807
	.rva	_do_noresolve	# 1808
	.rva	_do_north	# 1809
	.rva	_do_northeast	# 1810
	.rva	_do_northwest	# 1811
	.rva	_do_notell	# 1812
	.rva	_do_noteroom	# 1813
	.rva	_do_notitle	# 1814
	.rva	_do_nuisance	# 1815
	.rva	_do_oclaim	# 1816
	.rva	_do_ocreate	# 1817
	.rva	_do_odelete	# 1818
	.rva	_do_ofind	# 1819
	.rva	_do_oinvoke	# 1820
	.rva	_do_olist	# 1821
	.rva	_do_oowner	# 1822
	.rva	_do_opcopy	# 1823
	.rva	_do_opedit	# 1824
	.rva	_do_open	# 1825
	.rva	_do_opstat	# 1826
	.rva	_do_order	# 1827
	.rva	_do_orders	# 1828
	.rva	_do_ordertalk	# 1829
	.rva	_do_oset	# 1830
	.rva	_do_ostat	# 1831
	.rva	_do_ot	# 1832
	.rva	_do_outcast	# 1833
	.rva	_do_pager	# 1834
	.rva	_do_pardon	# 1835
	.rva	_do_password	# 1836
	.rva	_do_pcrename	# 1837
	.rva	_do_peace	# 1838
	.rva	_do_pick	# 1839
	.rva	_do_plist	# 1840
	.rva	_do_poison_weapon	# 1841
	.rva	_do_practice	# 1842
	.rva	_do_project	# 1843
	.rva	_do_prompt	# 1844
	.rva	_do_pset	# 1845
	.rva	_do_pstat	# 1846
	.rva	_do_pull	# 1847
	.rva	_do_punch	# 1848
	.rva	_do_purge	# 1849
	.rva	_do_push	# 1850
	.rva	_do_put	# 1851
	.rva	_do_qpset	# 1852
	.rva	_do_qpstat	# 1853
	.rva	_do_quaff	# 1854
	.rva	_do_quest	# 1855
	.rva	_do_qui	# 1856
	.rva	_do_quit	# 1857
	.rva	_do_racetalk	# 1858
	.rva	_do_rank	# 1859
	.rva	_do_rap	# 1860
	.rva	_do_rat	# 1861
	.rva	_do_rdelete	# 1862
	.rva	_do_rdig	# 1863
	.rva	_do_reboo	# 1864
	.rva	_do_reboot	# 1865
	.rva	_do_recall	# 1866
	.rva	_do_recho	# 1867
	.rva	_do_recite	# 1868
	.rva	_do_redit	# 1869
	.rva	_do_regoto	# 1870
	.rva	_do_remains	# 1871
	.rva	_do_remove	# 1872
	.rva	_do_rent	# 1873
	.rva	_do_renumber	# 1874
	.rva	_do_repair	# 1875
	.rva	_do_repairset	# 1876
	.rva	_do_repairshops	# 1877
	.rva	_do_repairstat	# 1878
	.rva	_do_repeat	# 1879
	.rva	_do_reply	# 1880
	.rva	_do_report	# 1881
	.rva	_do_rescue	# 1882
	.rva	_do_reserve	# 1883
	.rva	_do_reset	# 1884
	.rva	_do_rest	# 1885
	.rva	_do_restore	# 1886
	.rva	_do_restoretime	# 1887
	.rva	_do_restrict	# 1888
	.rva	_do_retell	# 1889
	.rva	_do_retire	# 1890
	.rva	_do_retran	# 1891
	.rva	_do_return	# 1892
	.rva	_do_revert	# 1893
	.rva	_do_rgrid	# 1894
	.rva	_do_rip	# 1895
	.rva	_do_rlist	# 1896
	.rva	_do_rolldie	# 1897
	.rva	_do_roster	# 1898
	.rva	_do_rpedit	# 1899
	.rva	_do_rpstat	# 1900
	.rva	_do_rstat	# 1901
	.rva	_do_sacrifice	# 1902
	.rva	_do_save	# 1903
	.rva	_do_savearea	# 1904
	.rva	_do_saveholiday	# 1905
	.rva	_do_say	# 1906
	.rva	_do_scan	# 1907
	.rva	_do_scatter	# 1908
	.rva	_do_score	# 1909
	.rva	_do_scribe	# 1910
	.rva	_do_search	# 1911
	.rva	_do_sedit	# 1912
	.rva	_do_sell	# 1913
	.rva	_do_set_boot_time	# 1914
	.rva	_do_setclan	# 1915
	.rva	_do_setclass	# 1916
	.rva	_do_setcouncil	# 1917
	.rva	_do_setdeity	# 1918
	.rva	_do_setholiday	# 1919
	.rva	_do_setliquid	# 1920
	.rva	_do_setmixture	# 1921
	.rva	_do_setmssp	# 1922
	.rva	_do_setrace	# 1923
	.rva	_do_setweather	# 1924
	.rva	_do_shops	# 1925
	.rva	_do_shopset	# 1926
	.rva	_do_shopstat	# 1927
	.rva	_do_shout	# 1928
	.rva	_do_shove	# 1929
	.rva	_do_showclan	# 1930
	.rva	_do_showclass	# 1931
	.rva	_do_showcouncil	# 1932
	.rva	_do_showdeity	# 1933
	.rva	_do_showliquid	# 1934
	.rva	_do_showmixture	# 1935
	.rva	_do_showrace	# 1936
	.rva	_do_showweather	# 1937
	.rva	_do_shutdow	# 1938
	.rva	_do_shutdown	# 1939
	.rva	_do_silence	# 1940
	.rva	_do_sit	# 1941
	.rva	_do_skin	# 1942
	.rva	_do_sla	# 1943
	.rva	_do_slay	# 1944
	.rva	_do_sleep	# 1945
	.rva	_do_slice	# 1946
	.rva	_do_slist	# 1947
	.rva	_do_slookup	# 1948
	.rva	_do_smoke	# 1949
	.rva	_do_sneak	# 1950
	.rva	_do_snoop	# 1951
	.rva	_do_sober	# 1952
	.rva	_do_socials	# 1953
	.rva	_do_south	# 1954
	.rva	_do_southeast	# 1955
	.rva	_do_southwest	# 1956
	.rva	_do_speak	# 1957
	.rva	_do_split	# 1958
	.rva	_do_sset	# 1959
	.rva	_do_stand	# 1960
	.rva	_do_stat	# 1961
	.rva	_do_statreport	# 1962
	.rva	_do_statshield	# 1963
	.rva	_do_steal	# 1964
	.rva	_do_sting	# 1965
	.rva	_do_strew	# 1966
	.rva	_do_strip	# 1967
	.rva	_do_stun	# 1968
	.rva	_do_style	# 1969
	.rva	_do_supplicate	# 1970
	.rva	_do_switch	# 1971
	.rva	_do_tail	# 1972
	.rva	_do_tamp	# 1973
	.rva	_do_tell	# 1974
	.rva	_do_think	# 1975
	.rva	_do_time	# 1976
	.rva	_do_timecmd	# 1977
	.rva	_do_timezone	# 1978
	.rva	_do_title	# 1979
	.rva	_do_track	# 1980
	.rva	_do_traffic	# 1981
	.rva	_do_transfer	# 1982
	.rva	_do_trust	# 1983
	.rva	_do_typo	# 1984
	.rva	_do_unbolt	# 1985
	.rva	_do_unfoldarea	# 1986
	.rva	_do_unhell	# 1987
	.rva	_do_unlock	# 1988
	.rva	_do_unnuisance	# 1989
	.rva	_do_unsilence	# 1990
	.rva	_do_up	# 1991
	.rva	_do_users	# 1992
	.rva	_do_value	# 1993
	.rva	_do_vassign	# 1994
	.rva	_do_version	# 1995
	.rva	_do_victories	# 1996
	.rva	_do_visible	# 1997
	.rva	_do_vnums	# 1998
	.rva	_do_vsearch	# 1999
	.rva	_do_vstat	# 2000
	.rva	_do_wake	# 2001
	.rva	_do_warn	# 2002
	.rva	_do_wartalk	# 2003
	.rva	_do_watch	# 2004
	.rva	_do_wear	# 2005
	.rva	_do_weather	# 2006
	.rva	_do_west	# 2007
	.rva	_do_where	# 2008
	.rva	_do_whisper	# 2009
	.rva	_do_who	# 2010
	.rva	_do_whois	# 2011
	.rva	_do_wimpy	# 2012
	.rva	_do_wizhelp	# 2013
	.rva	_do_wizlist	# 2014
	.rva	_do_wizlock	# 2015
	.rva	_do_worth	# 2016
	.rva	_do_yell	# 2017
	.rva	_do_zap	# 2018
	.rva	_do_zones	# 2019
	.rva	_ex_flags	# 2020
	.rva	_ex_pair	# 2021
	.rva	_ex_pearth	# 2022
	.rva	_ex_pfire	# 2023
	.rva	_ex_pmisc	# 2024
	.rva	_ex_pwater	# 2025
	.rva	_exc_set	# 2026
	.rva	_extracted_char_queue	# 2027
	.rva	_extracted_obj_queue	# 2028
	.rva	_fBootDb	# 2029
	.rva	_fLogAll	# 2030
	.rva	_falling	# 2031
	.rva	_file_ver	# 2032
	.rva	_first_area	# 2033
	.rva	_first_area_name	# 2034
	.rva	_first_asort	# 2035
	.rva	_first_ban	# 2036
	.rva	_first_ban_class	# 2037
	.rva	_first_ban_race	# 2038
	.rva	_first_board	# 2039
	.rva	_first_bsort	# 2040
	.rva	_first_build	# 2041
	.rva	_first_cache	# 2042
	.rva	_first_char	# 2043
	.rva	_first_clan	# 2044
	.rva	_first_council	# 2045
	.rva	_first_deity	# 2046
	.rva	_first_descriptor	# 2047
	.rva	_first_help	# 2048
	.rva	_first_hint	# 2049
	.rva	_first_holiday	# 2050
	.rva	_first_lang	# 2051
	.rva	_first_lmsg	# 2052
	.rva	_first_map	# 2053
	.rva	_first_mixture	# 2054
	.rva	_first_mpsleep	# 2055
	.rva	_first_news_type	# 2056
	.rva	_first_object	# 2057
	.rva	_first_plane	# 2058
	.rva	_first_project	# 2059
	.rva	_first_relation	# 2060
	.rva	_first_repair	# 2061
	.rva	_first_reserved	# 2062
	.rva	_first_shop	# 2063
	.rva	_first_specfun	# 2064
	.rva	_first_teleport	# 2065
	.rva	_first_watch	# 2066
	.rva	_first_whogr	# 2067
	.rva	_first_wiz	# 2068
	.rva	_fpArea	# 2069
	.rva	_global_objcode	# 2070
	.rva	_global_retcode	# 2071
	.rva	_gsn_aid	# 2072
	.rva	_gsn_aqua_breath	# 2073
	.rva	_gsn_backstab	# 2074
	.rva	_gsn_bash	# 2075
	.rva	_gsn_bashdoor	# 2076
	.rva	_gsn_berserk	# 2077
	.rva	_gsn_bite	# 2078
	.rva	_gsn_blindness	# 2079
	.rva	_gsn_bloodlet	# 2080
	.rva	_gsn_bludgeons	# 2081
	.rva	_gsn_brew	# 2082
	.rva	_gsn_broach	# 2083
	.rva	_gsn_charm_person	# 2084
	.rva	_gsn_chill_touch	# 2085
	.rva	_gsn_circle	# 2086
	.rva	_gsn_claw	# 2087
	.rva	_gsn_climb	# 2088
	.rva	_gsn_common	# 2089
	.rva	_gsn_cook	# 2090
	.rva	_gsn_curse	# 2091
	.rva	_gsn_detrap	# 2092
	.rva	_gsn_dig	# 2093
	.rva	_gsn_disarm	# 2094
	.rva	_gsn_dodge	# 2095
	.rva	_gsn_dual_wield	# 2096
	.rva	_gsn_dwarven	# 2097
	.rva	_gsn_elven	# 2098
	.rva	_gsn_enhanced_damage	# 2099
	.rva	_gsn_feed	# 2100
	.rva	_gsn_fifth_attack	# 2101
	.rva	_gsn_fireball	# 2102
	.rva	_gsn_flexible_arms	# 2103
	.rva	_gsn_fourth_attack	# 2104
	.rva	_gsn_goblin	# 2105
	.rva	_gsn_gouge	# 2106
	.rva	_gsn_grip	# 2107
	.rva	_gsn_halfling	# 2108
	.rva	_gsn_hide	# 2109
	.rva	_gsn_hitall	# 2110
	.rva	_gsn_invis	# 2111
	.rva	_gsn_kick	# 2112
	.rva	_gsn_lightning_bolt	# 2113
	.rva	_gsn_long_blades	# 2114
	.rva	_gsn_mass_invis	# 2115
	.rva	_gsn_missile_weapons	# 2116
	.rva	_gsn_mistwalk	# 2117
	.rva	_gsn_mount	# 2118
	.rva	_gsn_ogre	# 2119
	.rva	_gsn_orcish	# 2120
	.rva	_gsn_parry	# 2121
	.rva	_gsn_peek	# 2122
	.rva	_gsn_pick_lock	# 2123
	.rva	_gsn_pixie	# 2124
	.rva	_gsn_poison	# 2125
	.rva	_gsn_poison_weapon	# 2126
	.rva	_gsn_possess	# 2127
	.rva	_gsn_pugilism	# 2128
	.rva	_gsn_punch	# 2129
	.rva	_gsn_rescue	# 2130
	.rva	_gsn_scan	# 2131
	.rva	_gsn_scribe	# 2132
	.rva	_gsn_search	# 2133
	.rva	_gsn_second_attack	# 2134
	.rva	_gsn_short_blades	# 2135
	.rva	_gsn_sleep	# 2136
	.rva	_gsn_slice	# 2137
	.rva	_gsn_sneak	# 2138
	.rva	_gsn_steal	# 2139
	.rva	_gsn_sting	# 2140
	.rva	_gsn_stun	# 2141
	.rva	_gsn_style_aggressive	# 2142
	.rva	_gsn_style_berserk	# 2143
	.rva	_gsn_style_defensive	# 2144
	.rva	_gsn_style_evasive	# 2145
	.rva	_gsn_style_standard	# 2146
	.rva	_gsn_tail	# 2147
	.rva	_gsn_talonous_arms	# 2148
	.rva	_gsn_third_attack	# 2149
	.rva	_gsn_track	# 2150
	.rva	_gsn_trollish	# 2151
	.rva	_gsn_tumble	# 2152
	.rva	_help_greeting	# 2153
	.rva	_herb_table	# 2154
	.rva	_immortal_host_end	# 2155
	.rva	_immortal_host_start	# 2156
	.rva	_in_set	# 2157
	.rva	_int_app	# 2158
	.rva	_item_w_flags	# 2159
	.rva	_lang_array	# 2160
	.rva	_lang_names	# 2161
	.rva	_last_area	# 2162
	.rva	_last_area_name	# 2163
	.rva	_last_asort	# 2164
	.rva	_last_ban	# 2165
	.rva	_last_ban_class	# 2166
	.rva	_last_ban_race	# 2167
	.rva	_last_board	# 2168
	.rva	_last_bsort	# 2169
	.rva	_last_build	# 2170
	.rva	_last_cache	# 2171
	.rva	_last_char	# 2172
	.rva	_last_clan	# 2173
	.rva	_last_council	# 2174
	.rva	_last_deity	# 2175
	.rva	_last_descriptor	# 2176
	.rva	_last_help	# 2177
	.rva	_last_hint	# 2178
	.rva	_last_holiday	# 2179
	.rva	_last_lang	# 2180
	.rva	_last_lmsg	# 2181
	.rva	_last_mixture	# 2182
	.rva	_last_mpsleep	# 2183
	.rva	_last_news_type	# 2184
	.rva	_last_object	# 2185
	.rva	_last_pkroom	# 2186
	.rva	_last_plane	# 2187
	.rva	_last_project	# 2188
	.rva	_last_relation	# 2189
	.rva	_last_repair	# 2190
	.rva	_last_reserved	# 2191
	.rva	_last_restore_all_time	# 2192
	.rva	_last_shop	# 2193
	.rva	_last_specfun	# 2194
	.rva	_last_teleport	# 2195
	.rva	_last_watch	# 2196
	.rva	_last_whogr	# 2197
	.rva	_last_wiz	# 2198
	.rva	_lastplayercmd	# 2199
	.rva	_lck_app	# 2200
	.rva	_liq_count	# 2201
	.rva	_liq_table	# 2202
	.rva	_liquid_table	# 2203
	.rva	_loading_char	# 2204
	.rva	_main	# 2205
	.rva	_maxdesc	# 2206
	.rva	_mob_act_list	# 2207
	.rva	_mob_index_hash	# 2208
	.rva	_mob_save_equipment	# 2209
	.rva	_month_name	# 2210
	.rva	_moon_map	# 2211
	.rva	_morph_end	# 2212
	.rva	_morph_start	# 2213
	.rva	_morph_vnum	# 2214
	.rva	_movement_loss	# 2215
	.rva	_mssp_info	# 2216
	.rva	_mud_down	# 2217
	.rva	_mud_start_time	# 2218
	.rva	_new_boot_struct	# 2219
	.rva	_new_boot_time	# 2220
	.rva	_new_boot_time_t	# 2221
	.rva	_newdesc	# 2222
	.rva	_news_command_table	# 2223
	.rva	_npc_class	# 2224
	.rva	_npc_position	# 2225
	.rva	_npc_race	# 2226
	.rva	_npc_sex	# 2227
	.rva	_num_descriptors	# 2228
	.rva	_num_skills	# 2229
	.rva	_num_sorted_skills	# 2230
	.rva	_nummobsloaded	# 2231
	.rva	_numobjsloaded	# 2232
	.rva	_o_flags	# 2233
	.rva	_o_types	# 2234
	.rva	_obj_act_list	# 2235
	.rva	_obj_index_hash	# 2236
	.rva	_out_set	# 2237
	.rva	_pAbort	# 2238
	.rva	_p_blade_messages	# 2239
	.rva	_p_blunt_messages	# 2240
	.rva	_p_generic_messages	# 2241
	.rva	_p_message_table	# 2242
	.rva	_part_flags	# 2243
	.rva	_part_messages	# 2244
	.rva	_part_vnums	# 2245
	.rva	_pc_flags	# 2246
	.rva	_physicalobjects	# 2247
	.rva	_plr_flags	# 2248
	.rva	_port	# 2249
	.rva	_precip_msg	# 2250
	.rva	_precip_settings	# 2251
	.rva	_preciptemp_msg	# 2252
	.rva	_quitting_char	# 2253
	.rva	_r_flags	# 2254
	.rva	_race_table	# 2255
	.rva	_ranged_target_name	# 2256
	.rva	_reboot_time	# 2257
	.rva	_rev_dir	# 2258
	.rva	_ris_flags	# 2259
	.rva	_room_act_list	# 2260
	.rva	_room_index_hash	# 2261
	.rva	_s_blade_messages	# 2262
	.rva	_s_blunt_messages	# 2263
	.rva	_s_generic_messages	# 2264
	.rva	_s_message_table	# 2265
	.rva	_save_equipment	# 2266
	.rva	_saving_char	# 2267
	.rva	_season_name	# 2268
	.rva	_sec_flags	# 2269
	.rva	_service_shut_down	# 2270
	.rva	_set_boot_time	# 2271
	.rva	_set_boot_time_struct	# 2272
	.rva	_silence_locate_targets	# 2273
	.rva	_skill_notfound	# 2274
	.rva	_skill_table	# 2275
	.rva	_skill_table_bytype	# 2276
	.rva	_skill_tname	# 2277
	.rva	_social_index	# 2278
	.rva	_spec_breath_acid	# 2279
	.rva	_spec_breath_any	# 2280
	.rva	_spec_breath_fire	# 2281
	.rva	_spec_breath_frost	# 2282
	.rva	_spec_breath_gas	# 2283
	.rva	_spec_breath_lightning	# 2284
	.rva	_spec_cast_adept	# 2285
	.rva	_spec_cast_cleric	# 2286
	.rva	_spec_cast_mage	# 2287
	.rva	_spec_cast_undead	# 2288
	.rva	_spec_executioner	# 2289
	.rva	_spec_fido	# 2290
	.rva	_spec_guard	# 2291
	.rva	_spec_janitor	# 2292
	.rva	_spec_mayor	# 2293
	.rva	_spec_poison	# 2294
	.rva	_spec_thief	# 2295
	.rva	_spec_wanderer	# 2296
	.rva	_spell_acetum_primus	# 2297
	.rva	_spell_acid_blast	# 2298
	.rva	_spell_acid_breath	# 2299
	.rva	_spell_animate_dead	# 2300
	.rva	_spell_astral_walk	# 2301
	.rva	_spell_bethsaidean_touch	# 2302
	.rva	_spell_black_fist	# 2303
	.rva	_spell_black_hand	# 2304
	.rva	_spell_black_lightning	# 2305
	.rva	_spell_blindness	# 2306
	.rva	_spell_burning_hands	# 2307
	.rva	_spell_call_lightning	# 2308
	.rva	_spell_cause_critical	# 2309
	.rva	_spell_cause_light	# 2310
	.rva	_spell_cause_serious	# 2311
	.rva	_spell_caustic_fount	# 2312
	.rva	_spell_change_sex	# 2313
	.rva	_spell_charm_person	# 2314
	.rva	_spell_chill_touch	# 2315
	.rva	_spell_colour_spray	# 2316
	.rva	_spell_control_weather	# 2317
	.rva	_spell_create_food	# 2318
	.rva	_spell_create_water	# 2319
	.rva	_spell_cure_blindness	# 2320
	.rva	_spell_cure_poison	# 2321
	.rva	_spell_curse	# 2322
	.rva	_spell_detect_poison	# 2323
	.rva	_spell_disenchant_weapon	# 2324
	.rva	_spell_dispel_evil	# 2325
	.rva	_spell_dispel_magic	# 2326
	.rva	_spell_disruption	# 2327
	.rva	_spell_dream	# 2328
	.rva	_spell_earthquake	# 2329
	.rva	_spell_enchant_weapon	# 2330
	.rva	_spell_energy_drain	# 2331
	.rva	_spell_ethereal_fist	# 2332
	.rva	_spell_expurgation	# 2333
	.rva	_spell_faerie_fire	# 2334
	.rva	_spell_faerie_fog	# 2335
	.rva	_spell_farsight	# 2336
	.rva	_spell_fire_breath	# 2337
	.rva	_spell_fireball	# 2338
	.rva	_spell_flamestrike	# 2339
	.rva	_spell_frost_breath	# 2340
	.rva	_spell_galvanic_whip	# 2341
	.rva	_spell_gas_breath	# 2342
	.rva	_spell_gate	# 2343
	.rva	_spell_hand_of_chaos	# 2344
	.rva	_spell_harm	# 2345
	.rva	_spell_helical_flow	# 2346
	.rva	_spell_identify	# 2347
	.rva	_spell_invis	# 2348
	.rva	_spell_knock	# 2349
	.rva	_spell_know_alignment	# 2350
	.rva	_spell_lightning_bolt	# 2351
	.rva	_spell_lightning_breath	# 2352
	.rva	_spell_locate_object	# 2353
	.rva	_spell_magic_missile	# 2354
	.rva	_spell_magnetic_thrust	# 2355
	.rva	_spell_midas_touch	# 2356
	.rva	_spell_mind_wrack	# 2357
	.rva	_spell_mind_wrench	# 2358
	.rva	_spell_mist_walk	# 2359
	.rva	_spell_notfound	# 2360
	.rva	_spell_null	# 2361
	.rva	_spell_pass_door	# 2362
	.rva	_spell_plant_pass	# 2363
	.rva	_spell_poison	# 2364
	.rva	_spell_polymorph	# 2365
	.rva	_spell_portal	# 2366
	.rva	_spell_possess	# 2367
	.rva	_spell_quantum_spike	# 2368
	.rva	_spell_recharge	# 2369
	.rva	_spell_remove_curse	# 2370
	.rva	_spell_remove_invis	# 2371
	.rva	_spell_remove_trap	# 2372
	.rva	_spell_revive	# 2373
	.rva	_spell_sacral_divinity	# 2374
	.rva	_spell_scorching_surge	# 2375
	.rva	_spell_shocking_grasp	# 2376
	.rva	_spell_sleep	# 2377
	.rva	_spell_smaug	# 2378
	.rva	_spell_solar_flight	# 2379
	.rva	_spell_sonic_resonance	# 2380
	.rva	_spell_spectral_furor	# 2381
	.rva	_spell_spiral_blast	# 2382
	.rva	_spell_sulfurous_spray	# 2383
	.rva	_spell_summon	# 2384
	.rva	_spell_teleport	# 2385
	.rva	_spell_transport	# 2386
	.rva	_spell_ventriloquate	# 2387
	.rva	_spell_weaken	# 2388
	.rva	_spell_word_of_recall	# 2389
	.rva	_star_map	# 2390
	.rva	_start_compress2_str	# 2391
	.rva	_strArea	# 2392
	.rva	_str_app	# 2393
	.rva	_str_boot_time	# 2394
	.rva	_string_hash	# 2395
	.rva	_sun_map	# 2396
	.rva	_supermob	# 2397
	.rva	_supermob_obj	# 2398
	.rva	_sysdata	# 2399
	.rva	_target_name	# 2400
	.rva	_temp_settings	# 2401
	.rva	_text_map	# 2402
	.rva	_time_info	# 2403
	.rva	_timechar	# 2404
	.rva	_title_table	# 2405
	.rva	_top_affect	# 2406
	.rva	_top_area	# 2407
	.rva	_top_ed	# 2408
	.rva	_top_exit	# 2409
	.rva	_top_help	# 2410
	.rva	_top_herb	# 2411
	.rva	_top_liquid	# 2412
	.rva	_top_mob_index	# 2413
	.rva	_top_news_type	# 2414
	.rva	_top_obj_index	# 2415
	.rva	_top_repair	# 2416
	.rva	_top_reset	# 2417
	.rva	_top_room	# 2418
	.rva	_top_shop	# 2419
	.rva	_top_vroom	# 2420
	.rva	_trap_door	# 2421
	.rva	_trap_flags	# 2422
	.rva	_trig_flags	# 2423
	.rva	_trw_heap	# 2424
	.rva	_trw_loops	# 2425
	.rva	_tzone_table	# 2426
	.rva	_used_weapon	# 2427
	.rva	_version	# 2428
	.rva	_vroom_hash	# 2429
	.rva	_w_flags	# 2430
	.rva	_wear_locs	# 2431
	.rva	_weatherDelta	# 2432
	.rva	_weatherMap	# 2433
	.rva	_where_name	# 2434
	.rva	_will_compress2_str	# 2435
	.rva	_wind_msg	# 2436
	.rva	_wind_settings	# 2437
	.rva	_windtemp_msg	# 2438
	.rva	_winter_freeze	# 2439
	.rva	_DONT_UPPER	# 2440
# Export Name Pointer Table
anames:
	.rva	n2440
	.rva	n2
	.rva	n3
	.rva	n4
	.rva	n5
	.rva	n6
	.rva	n7
	.rva	n8
	.rva	n9
	.rva	n10
	.rva	n11
	.rva	n12
	.rva	n13
	.rva	n14
	.rva	n15
	.rva	n16
	.rva	n17
	.rva	n18
	.rva	n19
	.rva	n20
	.rva	n21
	.rva	n22
	.rva	n23
	.rva	n24
	.rva	n25
	.rva	n26
	.rva	n27
	.rva	n28
	.rva	n29
	.rva	n30
	.rva	n31
	.rva	n32
	.rva	n33
	.rva	n34
	.rva	n35
	.rva	n36
	.rva	n37
	.rva	n38
	.rva	n39
	.rva	n40
	.rva	n41
	.rva	n42
	.rva	n43
	.rva	n44
	.rva	n45
	.rva	n46
	.rva	n47
	.rva	n48
	.rva	n49
	.rva	n50
	.rva	n51
	.rva	n52
	.rva	n53
	.rva	n54
	.rva	n55
	.rva	n56
	.rva	n57
	.rva	n58
	.rva	n59
	.rva	n60
	.rva	n61
	.rva	n62
	.rva	n63
	.rva	n64
	.rva	n65
	.rva	n66
	.rva	n67
	.rva	n68
	.rva	n69
	.rva	n70
	.rva	n71
	.rva	n72
	.rva	n73
	.rva	n74
	.rva	n75
	.rva	n76
	.rva	n77
	.rva	n78
	.rva	n79
	.rva	n80
	.rva	n81
	.rva	n82
	.rva	n83
	.rva	n84
	.rva	n85
	.rva	n86
	.rva	n87
	.rva	n88
	.rva	n89
	.rva	n90
	.rva	n91
	.rva	n92
	.rva	n93
	.rva	n94
	.rva	n95
	.rva	n96
	.rva	n97
	.rva	n98
	.rva	n99
	.rva	n100
	.rva	n101
	.rva	n102
	.rva	n103
	.rva	n104
	.rva	n105
	.rva	n106
	.rva	n107
	.rva	n108
	.rva	n109
	.rva	n110
	.rva	n111
	.rva	n112
	.rva	n113
	.rva	n114
	.rva	n115
	.rva	n116
	.rva	n117
	.rva	n118
	.rva	n119
	.rva	n120
	.rva	n121
	.rva	n122
	.rva	n123
	.rva	n124
	.rva	n125
	.rva	n126
	.rva	n127
	.rva	n128
	.rva	n129
	.rva	n130
	.rva	n131
	.rva	n132
	.rva	n133
	.rva	n134
	.rva	n135
	.rva	n136
	.rva	n137
	.rva	n138
	.rva	n139
	.rva	n140
	.rva	n141
	.rva	n142
	.rva	n143
	.rva	n144
	.rva	n145
	.rva	n146
	.rva	n147
	.rva	n148
	.rva	n149
	.rva	n150
	.rva	n151
	.rva	n152
	.rva	n153
	.rva	n154
	.rva	n155
	.rva	n156
	.rva	n157
	.rva	n158
	.rva	n159
	.rva	n160
	.rva	n161
	.rva	n162
	.rva	n163
	.rva	n164
	.rva	n165
	.rva	n166
	.rva	n167
	.rva	n168
	.rva	n169
	.rva	n170
	.rva	n171
	.rva	n172
	.rva	n173
	.rva	n174
	.rva	n175
	.rva	n176
	.rva	n177
	.rva	n178
	.rva	n179
	.rva	n180
	.rva	n181
	.rva	n182
	.rva	n183
	.rva	n184
	.rva	n185
	.rva	n186
	.rva	n187
	.rva	n188
	.rva	n189
	.rva	n190
	.rva	n191
	.rva	n192
	.rva	n193
	.rva	n194
	.rva	n195
	.rva	n196
	.rva	n197
	.rva	n198
	.rva	n199
	.rva	n200
	.rva	n201
	.rva	n202
	.rva	n203
	.rva	n204
	.rva	n205
	.rva	n206
	.rva	n207
	.rva	n208
	.rva	n209
	.rva	n210
	.rva	n211
	.rva	n212
	.rva	n213
	.rva	n214
	.rva	n215
	.rva	n216
	.rva	n217
	.rva	n218
	.rva	n219
	.rva	n220
	.rva	n221
	.rva	n222
	.rva	n223
	.rva	n224
	.rva	n225
	.rva	n226
	.rva	n227
	.rva	n228
	.rva	n229
	.rva	n230
	.rva	n231
	.rva	n232
	.rva	n233
	.rva	n234
	.rva	n235
	.rva	n236
	.rva	n237
	.rva	n238
	.rva	n239
	.rva	n240
	.rva	n241
	.rva	n242
	.rva	n243
	.rva	n244
	.rva	n245
	.rva	n246
	.rva	n247
	.rva	n248
	.rva	n249
	.rva	n250
	.rva	n251
	.rva	n252
	.rva	n253
	.rva	n254
	.rva	n255
	.rva	n256
	.rva	n257
	.rva	n258
	.rva	n259
	.rva	n260
	.rva	n261
	.rva	n262
	.rva	n263
	.rva	n264
	.rva	n265
	.rva	n266
	.rva	n267
	.rva	n268
	.rva	n269
	.rva	n270
	.rva	n271
	.rva	n272
	.rva	n273
	.rva	n274
	.rva	n275
	.rva	n276
	.rva	n277
	.rva	n278
	.rva	n279
	.rva	n280
	.rva	n281
	.rva	n282
	.rva	n283
	.rva	n284
	.rva	n285
	.rva	n286
	.rva	n287
	.rva	n288
	.rva	n289
	.rva	n290
	.rva	n291
	.rva	n292
	.rva	n293
	.rva	n294
	.rva	n295
	.rva	n296
	.rva	n297
	.rva	n298
	.rva	n299
	.rva	n300
	.rva	n301
	.rva	n302
	.rva	n303
	.rva	n304
	.rva	n305
	.rva	n306
	.rva	n307
	.rva	n308
	.rva	n309
	.rva	n310
	.rva	n311
	.rva	n312
	.rva	n313
	.rva	n314
	.rva	n315
	.rva	n316
	.rva	n317
	.rva	n318
	.rva	n319
	.rva	n320
	.rva	n321
	.rva	n322
	.rva	n323
	.rva	n324
	.rva	n325
	.rva	n326
	.rva	n327
	.rva	n328
	.rva	n329
	.rva	n330
	.rva	n331
	.rva	n332
	.rva	n333
	.rva	n334
	.rva	n335
	.rva	n336
	.rva	n337
	.rva	n338
	.rva	n339
	.rva	n340
	.rva	n341
	.rva	n342
	.rva	n343
	.rva	n344
	.rva	n345
	.rva	n346
	.rva	n347
	.rva	n348
	.rva	n349
	.rva	n350
	.rva	n351
	.rva	n352
	.rva	n353
	.rva	n354
	.rva	n355
	.rva	n356
	.rva	n357
	.rva	n358
	.rva	n359
	.rva	n360
	.rva	n361
	.rva	n362
	.rva	n363
	.rva	n364
	.rva	n365
	.rva	n366
	.rva	n367
	.rva	n368
	.rva	n369
	.rva	n370
	.rva	n371
	.rva	n372
	.rva	n373
	.rva	n374
	.rva	n375
	.rva	n376
	.rva	n377
	.rva	n378
	.rva	n379
	.rva	n380
	.rva	n381
	.rva	n382
	.rva	n383
	.rva	n384
	.rva	n385
	.rva	n386
	.rva	n387
	.rva	n388
	.rva	n389
	.rva	n390
	.rva	n391
	.rva	n392
	.rva	n393
	.rva	n394
	.rva	n395
	.rva	n396
	.rva	n397
	.rva	n398
	.rva	n399
	.rva	n400
	.rva	n401
	.rva	n402
	.rva	n403
	.rva	n404
	.rva	n405
	.rva	n406
	.rva	n407
	.rva	n408
	.rva	n409
	.rva	n410
	.rva	n411
	.rva	n412
	.rva	n413
	.rva	n414
	.rva	n415
	.rva	n416
	.rva	n417
	.rva	n418
	.rva	n419
	.rva	n420
	.rva	n421
	.rva	n422
	.rva	n423
	.rva	n424
	.rva	n425
	.rva	n426
	.rva	n427
	.rva	n428
	.rva	n429
	.rva	n430
	.rva	n431
	.rva	n432
	.rva	n433
	.rva	n434
	.rva	n435
	.rva	n436
	.rva	n437
	.rva	n438
	.rva	n439
	.rva	n440
	.rva	n441
	.rva	n442
	.rva	n443
	.rva	n444
	.rva	n445
	.rva	n446
	.rva	n447
	.rva	n448
	.rva	n449
	.rva	n450
	.rva	n451
	.rva	n452
	.rva	n453
	.rva	n454
	.rva	n455
	.rva	n456
	.rva	n457
	.rva	n458
	.rva	n459
	.rva	n460
	.rva	n461
	.rva	n462
	.rva	n463
	.rva	n464
	.rva	n465
	.rva	n466
	.rva	n467
	.rva	n468
	.rva	n469
	.rva	n470
	.rva	n471
	.rva	n472
	.rva	n473
	.rva	n474
	.rva	n475
	.rva	n476
	.rva	n477
	.rva	n478
	.rva	n479
	.rva	n480
	.rva	n481
	.rva	n482
	.rva	n483
	.rva	n484
	.rva	n485
	.rva	n486
	.rva	n487
	.rva	n488
	.rva	n489
	.rva	n490
	.rva	n491
	.rva	n492
	.rva	n493
	.rva	n494
	.rva	n495
	.rva	n496
	.rva	n497
	.rva	n498
	.rva	n499
	.rva	n500
	.rva	n501
	.rva	n502
	.rva	n503
	.rva	n504
	.rva	n505
	.rva	n506
	.rva	n507
	.rva	n508
	.rva	n509
	.rva	n510
	.rva	n511
	.rva	n512
	.rva	n513
	.rva	n514
	.rva	n515
	.rva	n516
	.rva	n517
	.rva	n518
	.rva	n519
	.rva	n520
	.rva	n521
	.rva	n522
	.rva	n523
	.rva	n524
	.rva	n525
	.rva	n526
	.rva	n527
	.rva	n528
	.rva	n529
	.rva	n530
	.rva	n531
	.rva	n532
	.rva	n533
	.rva	n534
	.rva	n535
	.rva	n536
	.rva	n537
	.rva	n538
	.rva	n539
	.rva	n540
	.rva	n541
	.rva	n542
	.rva	n543
	.rva	n544
	.rva	n545
	.rva	n546
	.rva	n547
	.rva	n548
	.rva	n549
	.rva	n550
	.rva	n551
	.rva	n552
	.rva	n553
	.rva	n554
	.rva	n555
	.rva	n556
	.rva	n557
	.rva	n558
	.rva	n559
	.rva	n560
	.rva	n561
	.rva	n562
	.rva	n563
	.rva	n564
	.rva	n565
	.rva	n566
	.rva	n567
	.rva	n568
	.rva	n569
	.rva	n570
	.rva	n571
	.rva	n572
	.rva	n573
	.rva	n574
	.rva	n575
	.rva	n576
	.rva	n577
	.rva	n578
	.rva	n579
	.rva	n580
	.rva	n581
	.rva	n582
	.rva	n583
	.rva	n584
	.rva	n585
	.rva	n586
	.rva	n587
	.rva	n588
	.rva	n589
	.rva	n590
	.rva	n591
	.rva	n592
	.rva	n593
	.rva	n594
	.rva	n595
	.rva	n596
	.rva	n597
	.rva	n598
	.rva	n599
	.rva	n600
	.rva	n601
	.rva	n602
	.rva	n603
	.rva	n604
	.rva	n605
	.rva	n606
	.rva	n607
	.rva	n608
	.rva	n609
	.rva	n610
	.rva	n611
	.rva	n612
	.rva	n613
	.rva	n614
	.rva	n615
	.rva	n616
	.rva	n617
	.rva	n618
	.rva	n619
	.rva	n620
	.rva	n621
	.rva	n622
	.rva	n623
	.rva	n624
	.rva	n625
	.rva	n626
	.rva	n627
	.rva	n628
	.rva	n629
	.rva	n630
	.rva	n631
	.rva	n632
	.rva	n633
	.rva	n634
	.rva	n635
	.rva	n636
	.rva	n637
	.rva	n638
	.rva	n639
	.rva	n640
	.rva	n641
	.rva	n642
	.rva	n643
	.rva	n644
	.rva	n645
	.rva	n646
	.rva	n647
	.rva	n648
	.rva	n649
	.rva	n650
	.rva	n651
	.rva	n652
	.rva	n653
	.rva	n654
	.rva	n655
	.rva	n656
	.rva	n657
	.rva	n658
	.rva	n659
	.rva	n660
	.rva	n661
	.rva	n662
	.rva	n663
	.rva	n664
	.rva	n665
	.rva	n666
	.rva	n667
	.rva	n668
	.rva	n669
	.rva	n670
	.rva	n671
	.rva	n672
	.rva	n673
	.rva	n674
	.rva	n675
	.rva	n676
	.rva	n677
	.rva	n678
	.rva	n679
	.rva	n680
	.rva	n681
	.rva	n682
	.rva	n683
	.rva	n684
	.rva	n685
	.rva	n686
	.rva	n687
	.rva	n688
	.rva	n689
	.rva	n690
	.rva	n691
	.rva	n692
	.rva	n693
	.rva	n694
	.rva	n695
	.rva	n696
	.rva	n697
	.rva	n698
	.rva	n699
	.rva	n700
	.rva	n701
	.rva	n702
	.rva	n703
	.rva	n704
	.rva	n705
	.rva	n706
	.rva	n707
	.rva	n708
	.rva	n709
	.rva	n710
	.rva	n711
	.rva	n712
	.rva	n713
	.rva	n714
	.rva	n715
	.rva	n716
	.rva	n717
	.rva	n718
	.rva	n719
	.rva	n720
	.rva	n721
	.rva	n722
	.rva	n723
	.rva	n724
	.rva	n725
	.rva	n726
	.rva	n727
	.rva	n728
	.rva	n729
	.rva	n730
	.rva	n731
	.rva	n732
	.rva	n733
	.rva	n734
	.rva	n735
	.rva	n736
	.rva	n737
	.rva	n738
	.rva	n739
	.rva	n740
	.rva	n741
	.rva	n742
	.rva	n743
	.rva	n744
	.rva	n745
	.rva	n746
	.rva	n747
	.rva	n748
	.rva	n749
	.rva	n750
	.rva	n751
	.rva	n752
	.rva	n753
	.rva	n754
	.rva	n755
	.rva	n756
	.rva	n757
	.rva	n758
	.rva	n759
	.rva	n760
	.rva	n761
	.rva	n762
	.rva	n763
	.rva	n764
	.rva	n765
	.rva	n766
	.rva	n767
	.rva	n768
	.rva	n769
	.rva	n770
	.rva	n771
	.rva	n772
	.rva	n773
	.rva	n774
	.rva	n775
	.rva	n776
	.rva	n777
	.rva	n778
	.rva	n779
	.rva	n780
	.rva	n781
	.rva	n782
	.rva	n783
	.rva	n784
	.rva	n785
	.rva	n786
	.rva	n787
	.rva	n788
	.rva	n789
	.rva	n790
	.rva	n791
	.rva	n792
	.rva	n793
	.rva	n794
	.rva	n795
	.rva	n796
	.rva	n797
	.rva	n798
	.rva	n799
	.rva	n800
	.rva	n801
	.rva	n802
	.rva	n803
	.rva	n804
	.rva	n805
	.rva	n806
	.rva	n807
	.rva	n808
	.rva	n809
	.rva	n810
	.rva	n811
	.rva	n812
	.rva	n813
	.rva	n814
	.rva	n815
	.rva	n816
	.rva	n817
	.rva	n818
	.rva	n819
	.rva	n820
	.rva	n821
	.rva	n822
	.rva	n823
	.rva	n824
	.rva	n825
	.rva	n826
	.rva	n827
	.rva	n828
	.rva	n829
	.rva	n830
	.rva	n831
	.rva	n832
	.rva	n833
	.rva	n834
	.rva	n835
	.rva	n836
	.rva	n837
	.rva	n838
	.rva	n839
	.rva	n840
	.rva	n841
	.rva	n842
	.rva	n843
	.rva	n844
	.rva	n845
	.rva	n846
	.rva	n847
	.rva	n848
	.rva	n849
	.rva	n850
	.rva	n851
	.rva	n852
	.rva	n853
	.rva	n854
	.rva	n855
	.rva	n856
	.rva	n857
	.rva	n858
	.rva	n859
	.rva	n860
	.rva	n861
	.rva	n862
	.rva	n863
	.rva	n864
	.rva	n865
	.rva	n866
	.rva	n867
	.rva	n868
	.rva	n869
	.rva	n870
	.rva	n871
	.rva	n872
	.rva	n873
	.rva	n874
	.rva	n875
	.rva	n876
	.rva	n877
	.rva	n878
	.rva	n879
	.rva	n880
	.rva	n881
	.rva	n882
	.rva	n883
	.rva	n884
	.rva	n885
	.rva	n886
	.rva	n887
	.rva	n888
	.rva	n889
	.rva	n890
	.rva	n891
	.rva	n892
	.rva	n893
	.rva	n894
	.rva	n895
	.rva	n896
	.rva	n897
	.rva	n898
	.rva	n899
	.rva	n900
	.rva	n901
	.rva	n902
	.rva	n903
	.rva	n904
	.rva	n905
	.rva	n906
	.rva	n907
	.rva	n908
	.rva	n909
	.rva	n910
	.rva	n911
	.rva	n912
	.rva	n913
	.rva	n914
	.rva	n915
	.rva	n916
	.rva	n917
	.rva	n918
	.rva	n919
	.rva	n920
	.rva	n921
	.rva	n922
	.rva	n923
	.rva	n924
	.rva	n925
	.rva	n926
	.rva	n927
	.rva	n928
	.rva	n929
	.rva	n930
	.rva	n931
	.rva	n932
	.rva	n933
	.rva	n934
	.rva	n935
	.rva	n936
	.rva	n937
	.rva	n938
	.rva	n939
	.rva	n940
	.rva	n941
	.rva	n942
	.rva	n943
	.rva	n944
	.rva	n945
	.rva	n946
	.rva	n947
	.rva	n948
	.rva	n949
	.rva	n950
	.rva	n951
	.rva	n952
	.rva	n953
	.rva	n954
	.rva	n955
	.rva	n956
	.rva	n957
	.rva	n958
	.rva	n959
	.rva	n960
	.rva	n961
	.rva	n962
	.rva	n963
	.rva	n964
	.rva	n965
	.rva	n966
	.rva	n967
	.rva	n968
	.rva	n969
	.rva	n970
	.rva	n971
	.rva	n972
	.rva	n973
	.rva	n974
	.rva	n975
	.rva	n976
	.rva	n977
	.rva	n978
	.rva	n979
	.rva	n980
	.rva	n981
	.rva	n982
	.rva	n983
	.rva	n984
	.rva	n985
	.rva	n986
	.rva	n987
	.rva	n988
	.rva	n989
	.rva	n990
	.rva	n991
	.rva	n992
	.rva	n993
	.rva	n994
	.rva	n995
	.rva	n996
	.rva	n997
	.rva	n998
	.rva	n999
	.rva	n1000
	.rva	n1001
	.rva	n1002
	.rva	n1003
	.rva	n1004
	.rva	n1005
	.rva	n1006
	.rva	n1007
	.rva	n1008
	.rva	n1009
	.rva	n1010
	.rva	n1011
	.rva	n1012
	.rva	n1013
	.rva	n1014
	.rva	n1015
	.rva	n1016
	.rva	n1017
	.rva	n1018
	.rva	n1019
	.rva	n1020
	.rva	n1021
	.rva	n1022
	.rva	n1023
	.rva	n1024
	.rva	n1025
	.rva	n1026
	.rva	n1027
	.rva	n1028
	.rva	n1029
	.rva	n1030
	.rva	n1031
	.rva	n1032
	.rva	n1033
	.rva	n1034
	.rva	n1035
	.rva	n1036
	.rva	n1037
	.rva	n1038
	.rva	n1039
	.rva	n1040
	.rva	n1041
	.rva	n1042
	.rva	n1043
	.rva	n1044
	.rva	n1045
	.rva	n1046
	.rva	n1047
	.rva	n1048
	.rva	n1049
	.rva	n1050
	.rva	n1051
	.rva	n1052
	.rva	n1053
	.rva	n1054
	.rva	n1055
	.rva	n1056
	.rva	n1057
	.rva	n1058
	.rva	n1059
	.rva	n1060
	.rva	n1061
	.rva	n1062
	.rva	n1063
	.rva	n1064
	.rva	n1065
	.rva	n1066
	.rva	n1067
	.rva	n1068
	.rva	n1069
	.rva	n1070
	.rva	n1071
	.rva	n1072
	.rva	n1073
	.rva	n1074
	.rva	n1075
	.rva	n1076
	.rva	n1077
	.rva	n1078
	.rva	n1079
	.rva	n1080
	.rva	n1081
	.rva	n1082
	.rva	n1083
	.rva	n1084
	.rva	n1085
	.rva	n1086
	.rva	n1087
	.rva	n1088
	.rva	n1089
	.rva	n1090
	.rva	n1091
	.rva	n1092
	.rva	n1093
	.rva	n1094
	.rva	n1095
	.rva	n1096
	.rva	n1097
	.rva	n1098
	.rva	n1099
	.rva	n1100
	.rva	n1101
	.rva	n1102
	.rva	n1103
	.rva	n1104
	.rva	n1105
	.rva	n1106
	.rva	n1107
	.rva	n1108
	.rva	n1109
	.rva	n1110
	.rva	n1111
	.rva	n1112
	.rva	n1113
	.rva	n1114
	.rva	n1115
	.rva	n1116
	.rva	n1117
	.rva	n1118
	.rva	n1119
	.rva	n1120
	.rva	n1121
	.rva	n1122
	.rva	n1123
	.rva	n1124
	.rva	n1125
	.rva	n1126
	.rva	n1127
	.rva	n1128
	.rva	n1129
	.rva	n1130
	.rva	n1131
	.rva	n1132
	.rva	n1133
	.rva	n1134
	.rva	n1135
	.rva	n1136
	.rva	n1137
	.rva	n1138
	.rva	n1139
	.rva	n1140
	.rva	n1141
	.rva	n1142
	.rva	n1143
	.rva	n1144
	.rva	n1145
	.rva	n1146
	.rva	n1147
	.rva	n1148
	.rva	n1149
	.rva	n1150
	.rva	n1151
	.rva	n1152
	.rva	n1153
	.rva	n1154
	.rva	n1155
	.rva	n1156
	.rva	n1157
	.rva	n1158
	.rva	n1159
	.rva	n1160
	.rva	n1161
	.rva	n1162
	.rva	n1163
	.rva	n1164
	.rva	n1165
	.rva	n1166
	.rva	n1167
	.rva	n1168
	.rva	n1169
	.rva	n1170
	.rva	n1171
	.rva	n1172
	.rva	n1173
	.rva	n1174
	.rva	n1175
	.rva	n1176
	.rva	n1177
	.rva	n1178
	.rva	n1179
	.rva	n1180
	.rva	n1181
	.rva	n1182
	.rva	n1183
	.rva	n1184
	.rva	n1185
	.rva	n1186
	.rva	n1187
	.rva	n1188
	.rva	n1189
	.rva	n1190
	.rva	n1191
	.rva	n1192
	.rva	n1193
	.rva	n1194
	.rva	n1195
	.rva	n1196
	.rva	n1197
	.rva	n1198
	.rva	n1199
	.rva	n1200
	.rva	n1201
	.rva	n1202
	.rva	n1203
	.rva	n1204
	.rva	n1205
	.rva	n1206
	.rva	n1207
	.rva	n1208
	.rva	n1209
	.rva	n1210
	.rva	n1211
	.rva	n1212
	.rva	n1213
	.rva	n1214
	.rva	n1215
	.rva	n1216
	.rva	n1217
	.rva	n1218
	.rva	n1219
	.rva	n1220
	.rva	n1221
	.rva	n1222
	.rva	n1223
	.rva	n1224
	.rva	n1225
	.rva	n1226
	.rva	n1227
	.rva	n1228
	.rva	n1229
	.rva	n1230
	.rva	n1231
	.rva	n1232
	.rva	n1233
	.rva	n1234
	.rva	n1235
	.rva	n1236
	.rva	n1237
	.rva	n1238
	.rva	n1239
	.rva	n1240
	.rva	n1241
	.rva	n1242
	.rva	n1243
	.rva	n1244
	.rva	n1245
	.rva	n1246
	.rva	n1247
	.rva	n1248
	.rva	n1249
	.rva	n1250
	.rva	n1251
	.rva	n1252
	.rva	n1253
	.rva	n1254
	.rva	n1255
	.rva	n1256
	.rva	n1257
	.rva	n1258
	.rva	n1259
	.rva	n1260
	.rva	n1261
	.rva	n1262
	.rva	n1263
	.rva	n1264
	.rva	n1265
	.rva	n1266
	.rva	n1267
	.rva	n1268
	.rva	n1269
	.rva	n1270
	.rva	n1271
	.rva	n1272
	.rva	n1273
	.rva	n1274
	.rva	n1275
	.rva	n1276
	.rva	n1277
	.rva	n1278
	.rva	n1279
	.rva	n1280
	.rva	n1281
	.rva	n1282
	.rva	n1283
	.rva	n1284
	.rva	n1285
	.rva	n1286
	.rva	n1287
	.rva	n1288
	.rva	n1289
	.rva	n1290
	.rva	n1291
	.rva	n1292
	.rva	n1293
	.rva	n1294
	.rva	n1295
	.rva	n1296
	.rva	n1297
	.rva	n1298
	.rva	n1299
	.rva	n1300
	.rva	n1301
	.rva	n1302
	.rva	n1303
	.rva	n1304
	.rva	n1305
	.rva	n1306
	.rva	n1307
	.rva	n1308
	.rva	n1309
	.rva	n1310
	.rva	n1311
	.rva	n1312
	.rva	n1313
	.rva	n1314
	.rva	n1315
	.rva	n1316
	.rva	n1317
	.rva	n1318
	.rva	n1319
	.rva	n1320
	.rva	n1321
	.rva	n1322
	.rva	n1323
	.rva	n1324
	.rva	n1325
	.rva	n1326
	.rva	n1327
	.rva	n1328
	.rva	n1329
	.rva	n1330
	.rva	n1331
	.rva	n1332
	.rva	n1333
	.rva	n1334
	.rva	n1335
	.rva	n1336
	.rva	n1337
	.rva	n1338
	.rva	n1339
	.rva	n1340
	.rva	n1341
	.rva	n1342
	.rva	n1343
	.rva	n1344
	.rva	n1345
	.rva	n1346
	.rva	n1347
	.rva	n1348
	.rva	n1349
	.rva	n1350
	.rva	n1351
	.rva	n1352
	.rva	n1353
	.rva	n1354
	.rva	n1355
	.rva	n1356
	.rva	n1357
	.rva	n1358
	.rva	n1359
	.rva	n1360
	.rva	n1361
	.rva	n1362
	.rva	n1363
	.rva	n1364
	.rva	n1365
	.rva	n1366
	.rva	n1367
	.rva	n1368
	.rva	n1369
	.rva	n1370
	.rva	n1371
	.rva	n1372
	.rva	n1373
	.rva	n1374
	.rva	n1375
	.rva	n1376
	.rva	n1377
	.rva	n1378
	.rva	n1379
	.rva	n1380
	.rva	n1381
	.rva	n1382
	.rva	n1383
	.rva	n1384
	.rva	n1385
	.rva	n1386
	.rva	n1387
	.rva	n1388
	.rva	n1389
	.rva	n1390
	.rva	n1391
	.rva	n1392
	.rva	n1393
	.rva	n1394
	.rva	n1395
	.rva	n1396
	.rva	n1397
	.rva	n1398
	.rva	n1399
	.rva	n1400
	.rva	n1401
	.rva	n1402
	.rva	n1403
	.rva	n1404
	.rva	n1405
	.rva	n1406
	.rva	n1407
	.rva	n1408
	.rva	n1409
	.rva	n1410
	.rva	n1411
	.rva	n1412
	.rva	n1413
	.rva	n1414
	.rva	n1415
	.rva	n1416
	.rva	n1417
	.rva	n1418
	.rva	n1419
	.rva	n1420
	.rva	n1421
	.rva	n1422
	.rva	n1423
	.rva	n1424
	.rva	n1425
	.rva	n1426
	.rva	n1427
	.rva	n1428
	.rva	n1429
	.rva	n1430
	.rva	n1431
	.rva	n1432
	.rva	n1433
	.rva	n1434
	.rva	n1435
	.rva	n1436
	.rva	n1437
	.rva	n1438
	.rva	n1439
	.rva	n1440
	.rva	n1441
	.rva	n1442
	.rva	n1443
	.rva	n1444
	.rva	n1445
	.rva	n1446
	.rva	n1447
	.rva	n1448
	.rva	n1449
	.rva	n1450
	.rva	n1451
	.rva	n1452
	.rva	n1453
	.rva	n1454
	.rva	n1455
	.rva	n1456
	.rva	n1457
	.rva	n1458
	.rva	n1459
	.rva	n1460
	.rva	n1461
	.rva	n1462
	.rva	n1463
	.rva	n1464
	.rva	n1465
	.rva	n1466
	.rva	n1467
	.rva	n1468
	.rva	n1469
	.rva	n1470
	.rva	n1471
	.rva	n1472
	.rva	n1473
	.rva	n1474
	.rva	n1475
	.rva	n1476
	.rva	n1477
	.rva	n1478
	.rva	n1479
	.rva	n1480
	.rva	n1481
	.rva	n1482
	.rva	n1483
	.rva	n1484
	.rva	n1485
	.rva	n1486
	.rva	n1487
	.rva	n1488
	.rva	n1489
	.rva	n1490
	.rva	n1491
	.rva	n1492
	.rva	n1493
	.rva	n1494
	.rva	n1495
	.rva	n1496
	.rva	n1497
	.rva	n1498
	.rva	n1499
	.rva	n1500
	.rva	n1501
	.rva	n1502
	.rva	n1503
	.rva	n1504
	.rva	n1505
	.rva	n1506
	.rva	n1507
	.rva	n1508
	.rva	n1509
	.rva	n1510
	.rva	n1511
	.rva	n1512
	.rva	n1513
	.rva	n1514
	.rva	n1515
	.rva	n1516
	.rva	n1517
	.rva	n1518
	.rva	n1519
	.rva	n1520
	.rva	n1521
	.rva	n1522
	.rva	n1523
	.rva	n1524
	.rva	n1525
	.rva	n1526
	.rva	n1527
	.rva	n1528
	.rva	n1529
	.rva	n1530
	.rva	n1531
	.rva	n1532
	.rva	n1533
	.rva	n1534
	.rva	n1535
	.rva	n1536
	.rva	n1537
	.rva	n1538
	.rva	n1539
	.rva	n1540
	.rva	n1541
	.rva	n1542
	.rva	n1543
	.rva	n1544
	.rva	n1545
	.rva	n1546
	.rva	n1547
	.rva	n1548
	.rva	n1549
	.rva	n1550
	.rva	n1551
	.rva	n1552
	.rva	n1553
	.rva	n1554
	.rva	n1555
	.rva	n1556
	.rva	n1557
	.rva	n1558
	.rva	n1559
	.rva	n1560
	.rva	n1561
	.rva	n1562
	.rva	n1563
	.rva	n1564
	.rva	n1565
	.rva	n1566
	.rva	n1567
	.rva	n1568
	.rva	n1569
	.rva	n1570
	.rva	n1571
	.rva	n1572
	.rva	n1573
	.rva	n1574
	.rva	n1575
	.rva	n1576
	.rva	n1577
	.rva	n1578
	.rva	n1579
	.rva	n1580
	.rva	n1581
	.rva	n1582
	.rva	n1583
	.rva	n1584
	.rva	n1585
	.rva	n1586
	.rva	n1587
	.rva	n1588
	.rva	n1589
	.rva	n1590
	.rva	n1591
	.rva	n1592
	.rva	n1593
	.rva	n1594
	.rva	n1595
	.rva	n1596
	.rva	n1597
	.rva	n1598
	.rva	n1599
	.rva	n1600
	.rva	n1601
	.rva	n1602
	.rva	n1603
	.rva	n1604
	.rva	n1605
	.rva	n1606
	.rva	n1607
	.rva	n1608
	.rva	n1609
	.rva	n1610
	.rva	n1611
	.rva	n1612
	.rva	n1613
	.rva	n1614
	.rva	n1615
	.rva	n1616
	.rva	n1617
	.rva	n1618
	.rva	n1619
	.rva	n1620
	.rva	n1621
	.rva	n1622
	.rva	n1623
	.rva	n1624
	.rva	n1625
	.rva	n1626
	.rva	n1627
	.rva	n1628
	.rva	n1629
	.rva	n1630
	.rva	n1631
	.rva	n1632
	.rva	n1633
	.rva	n1634
	.rva	n1635
	.rva	n1636
	.rva	n1637
	.rva	n1638
	.rva	n1639
	.rva	n1640
	.rva	n1641
	.rva	n1642
	.rva	n1643
	.rva	n1644
	.rva	n1645
	.rva	n1646
	.rva	n1647
	.rva	n1648
	.rva	n1649
	.rva	n1650
	.rva	n1651
	.rva	n1652
	.rva	n1653
	.rva	n1654
	.rva	n1655
	.rva	n1656
	.rva	n1657
	.rva	n1658
	.rva	n1659
	.rva	n1660
	.rva	n1661
	.rva	n1662
	.rva	n1663
	.rva	n1664
	.rva	n1665
	.rva	n1666
	.rva	n1667
	.rva	n1668
	.rva	n1669
	.rva	n1670
	.rva	n1671
	.rva	n1672
	.rva	n1673
	.rva	n1674
	.rva	n1675
	.rva	n1676
	.rva	n1677
	.rva	n1678
	.rva	n1679
	.rva	n1680
	.rva	n1681
	.rva	n1682
	.rva	n1683
	.rva	n1684
	.rva	n1685
	.rva	n1686
	.rva	n1687
	.rva	n1688
	.rva	n1689
	.rva	n1690
	.rva	n1691
	.rva	n1692
	.rva	n1693
	.rva	n1694
	.rva	n1695
	.rva	n1696
	.rva	n1697
	.rva	n1698
	.rva	n1699
	.rva	n1700
	.rva	n1701
	.rva	n1702
	.rva	n1703
	.rva	n1704
	.rva	n1705
	.rva	n1706
	.rva	n1707
	.rva	n1708
	.rva	n1709
	.rva	n1710
	.rva	n1711
	.rva	n1712
	.rva	n1713
	.rva	n1714
	.rva	n1715
	.rva	n1716
	.rva	n1717
	.rva	n1718
	.rva	n1719
	.rva	n1720
	.rva	n1721
	.rva	n1722
	.rva	n1723
	.rva	n1724
	.rva	n1725
	.rva	n1726
	.rva	n1727
	.rva	n1728
	.rva	n1729
	.rva	n1730
	.rva	n1731
	.rva	n1732
	.rva	n1733
	.rva	n1734
	.rva	n1735
	.rva	n1736
	.rva	n1737
	.rva	n1738
	.rva	n1739
	.rva	n1740
	.rva	n1741
	.rva	n1742
	.rva	n1743
	.rva	n1744
	.rva	n1745
	.rva	n1746
	.rva	n1747
	.rva	n1748
	.rva	n1749
	.rva	n1750
	.rva	n1751
	.rva	n1752
	.rva	n1753
	.rva	n1754
	.rva	n1755
	.rva	n1756
	.rva	n1757
	.rva	n1758
	.rva	n1759
	.rva	n1760
	.rva	n1761
	.rva	n1762
	.rva	n1763
	.rva	n1764
	.rva	n1765
	.rva	n1766
	.rva	n1767
	.rva	n1768
	.rva	n1769
	.rva	n1770
	.rva	n1771
	.rva	n1772
	.rva	n1773
	.rva	n1774
	.rva	n1775
	.rva	n1776
	.rva	n1777
	.rva	n1778
	.rva	n1779
	.rva	n1780
	.rva	n1781
	.rva	n1782
	.rva	n1783
	.rva	n1784
	.rva	n1785
	.rva	n1786
	.rva	n1787
	.rva	n1788
	.rva	n1789
	.rva	n1790
	.rva	n1791
	.rva	n1792
	.rva	n1793
	.rva	n1794
	.rva	n1795
	.rva	n1796
	.rva	n1797
	.rva	n1798
	.rva	n1799
	.rva	n1800
	.rva	n1801
	.rva	n1802
	.rva	n1803
	.rva	n1804
	.rva	n1805
	.rva	n1806
	.rva	n1807
	.rva	n1808
	.rva	n1809
	.rva	n1810
	.rva	n1811
	.rva	n1812
	.rva	n1813
	.rva	n1814
	.rva	n1815
	.rva	n1816
	.rva	n1817
	.rva	n1818
	.rva	n1819
	.rva	n1820
	.rva	n1821
	.rva	n1822
	.rva	n1823
	.rva	n1824
	.rva	n1825
	.rva	n1826
	.rva	n1827
	.rva	n1828
	.rva	n1829
	.rva	n1830
	.rva	n1831
	.rva	n1832
	.rva	n1833
	.rva	n1834
	.rva	n1835
	.rva	n1836
	.rva	n1837
	.rva	n1838
	.rva	n1839
	.rva	n1840
	.rva	n1841
	.rva	n1842
	.rva	n1843
	.rva	n1844
	.rva	n1845
	.rva	n1846
	.rva	n1847
	.rva	n1848
	.rva	n1849
	.rva	n1850
	.rva	n1851
	.rva	n1852
	.rva	n1853
	.rva	n1854
	.rva	n1855
	.rva	n1856
	.rva	n1857
	.rva	n1858
	.rva	n1859
	.rva	n1860
	.rva	n1861
	.rva	n1862
	.rva	n1863
	.rva	n1864
	.rva	n1865
	.rva	n1866
	.rva	n1867
	.rva	n1868
	.rva	n1869
	.rva	n1870
	.rva	n1871
	.rva	n1872
	.rva	n1873
	.rva	n1874
	.rva	n1875
	.rva	n1876
	.rva	n1877
	.rva	n1878
	.rva	n1879
	.rva	n1880
	.rva	n1881
	.rva	n1882
	.rva	n1883
	.rva	n1884
	.rva	n1885
	.rva	n1886
	.rva	n1887
	.rva	n1888
	.rva	n1889
	.rva	n1890
	.rva	n1891
	.rva	n1892
	.rva	n1893
	.rva	n1894
	.rva	n1895
	.rva	n1896
	.rva	n1897
	.rva	n1898
	.rva	n1899
	.rva	n1900
	.rva	n1901
	.rva	n1902
	.rva	n1903
	.rva	n1904
	.rva	n1905
	.rva	n1906
	.rva	n1907
	.rva	n1908
	.rva	n1909
	.rva	n1910
	.rva	n1911
	.rva	n1912
	.rva	n1913
	.rva	n1914
	.rva	n1915
	.rva	n1916
	.rva	n1917
	.rva	n1918
	.rva	n1919
	.rva	n1920
	.rva	n1921
	.rva	n1922
	.rva	n1923
	.rva	n1924
	.rva	n1925
	.rva	n1926
	.rva	n1927
	.rva	n1928
	.rva	n1929
	.rva	n1930
	.rva	n1931
	.rva	n1932
	.rva	n1933
	.rva	n1934
	.rva	n1935
	.rva	n1936
	.rva	n1937
	.rva	n1938
	.rva	n1939
	.rva	n1940
	.rva	n1941
	.rva	n1942
	.rva	n1943
	.rva	n1944
	.rva	n1945
	.rva	n1946
	.rva	n1947
	.rva	n1948
	.rva	n1949
	.rva	n1950
	.rva	n1951
	.rva	n1952
	.rva	n1953
	.rva	n1954
	.rva	n1955
	.rva	n1956
	.rva	n1957
	.rva	n1958
	.rva	n1959
	.rva	n1960
	.rva	n1961
	.rva	n1962
	.rva	n1963
	.rva	n1964
	.rva	n1965
	.rva	n1966
	.rva	n1967
	.rva	n1968
	.rva	n1969
	.rva	n1970
	.rva	n1971
	.rva	n1972
	.rva	n1973
	.rva	n1974
	.rva	n1975
	.rva	n1976
	.rva	n1977
	.rva	n1978
	.rva	n1979
	.rva	n1980
	.rva	n1981
	.rva	n1982
	.rva	n1983
	.rva	n1984
	.rva	n1985
	.rva	n1986
	.rva	n1987
	.rva	n1988
	.rva	n1989
	.rva	n1990
	.rva	n1991
	.rva	n1992
	.rva	n1993
	.rva	n1994
	.rva	n1995
	.rva	n1996
	.rva	n1997
	.rva	n1998
	.rva	n1999
	.rva	n2000
	.rva	n2001
	.rva	n2002
	.rva	n2003
	.rva	n2004
	.rva	n2005
	.rva	n2006
	.rva	n2007
	.rva	n2008
	.rva	n2009
	.rva	n2010
	.rva	n2011
	.rva	n2012
	.rva	n2013
	.rva	n2014
	.rva	n2015
	.rva	n2016
	.rva	n2017
	.rva	n2018
	.rva	n2019
	.rva	n2020
	.rva	n2021
	.rva	n2022
	.rva	n2023
	.rva	n2024
	.rva	n2025
	.rva	n2026
	.rva	n2027
	.rva	n2028
	.rva	n2029
	.rva	n2030
	.rva	n2031
	.rva	n2032
	.rva	n2033
	.rva	n2034
	.rva	n2035
	.rva	n2036
	.rva	n2037
	.rva	n2038
	.rva	n2039
	.rva	n2040
	.rva	n2041
	.rva	n2042
	.rva	n2043
	.rva	n2044
	.rva	n2045
	.rva	n2046
	.rva	n2047
	.rva	n2048
	.rva	n2049
	.rva	n2050
	.rva	n2051
	.rva	n2052
	.rva	n2053
	.rva	n2054
	.rva	n2055
	.rva	n2056
	.rva	n2057
	.rva	n2058
	.rva	n2059
	.rva	n2060
	.rva	n2061
	.rva	n2062
	.rva	n2063
	.rva	n2064
	.rva	n2065
	.rva	n2066
	.rva	n2067
	.rva	n2068
	.rva	n2069
	.rva	n2070
	.rva	n2071
	.rva	n2072
	.rva	n2073
	.rva	n2074
	.rva	n2075
	.rva	n2076
	.rva	n2077
	.rva	n2078
	.rva	n2079
	.rva	n2080
	.rva	n2081
	.rva	n2082
	.rva	n2083
	.rva	n2084
	.rva	n2085
	.rva	n2086
	.rva	n2087
	.rva	n2088
	.rva	n2089
	.rva	n2090
	.rva	n2091
	.rva	n2092
	.rva	n2093
	.rva	n2094
	.rva	n2095
	.rva	n2096
	.rva	n2097
	.rva	n2098
	.rva	n2099
	.rva	n2100
	.rva	n2101
	.rva	n2102
	.rva	n2103
	.rva	n2104
	.rva	n2105
	.rva	n2106
	.rva	n2107
	.rva	n2108
	.rva	n2109
	.rva	n2110
	.rva	n2111
	.rva	n2112
	.rva	n2113
	.rva	n2114
	.rva	n2115
	.rva	n2116
	.rva	n2117
	.rva	n2118
	.rva	n2119
	.rva	n2120
	.rva	n2121
	.rva	n2122
	.rva	n2123
	.rva	n2124
	.rva	n2125
	.rva	n2126
	.rva	n2127
	.rva	n2128
	.rva	n2129
	.rva	n2130
	.rva	n2131
	.rva	n2132
	.rva	n2133
	.rva	n2134
	.rva	n2135
	.rva	n2136
	.rva	n2137
	.rva	n2138
	.rva	n2139
	.rva	n2140
	.rva	n2141
	.rva	n2142
	.rva	n2143
	.rva	n2144
	.rva	n2145
	.rva	n2146
	.rva	n2147
	.rva	n2148
	.rva	n2149
	.rva	n2150
	.rva	n2151
	.rva	n2152
	.rva	n2153
	.rva	n2154
	.rva	n2155
	.rva	n2156
	.rva	n2157
	.rva	n2158
	.rva	n2159
	.rva	n2160
	.rva	n2161
	.rva	n2162
	.rva	n2163
	.rva	n2164
	.rva	n2165
	.rva	n2166
	.rva	n2167
	.rva	n2168
	.rva	n2169
	.rva	n2170
	.rva	n2171
	.rva	n2172
	.rva	n2173
	.rva	n2174
	.rva	n2175
	.rva	n2176
	.rva	n2177
	.rva	n2178
	.rva	n2179
	.rva	n2180
	.rva	n2181
	.rva	n2182
	.rva	n2183
	.rva	n2184
	.rva	n2185
	.rva	n2186
	.rva	n2187
	.rva	n2188
	.rva	n2189
	.rva	n2190
	.rva	n2191
	.rva	n2192
	.rva	n2193
	.rva	n2194
	.rva	n2195
	.rva	n2196
	.rva	n2197
	.rva	n2198
	.rva	n2199
	.rva	n2200
	.rva	n2201
	.rva	n2202
	.rva	n2203
	.rva	n2204
	.rva	n2205
	.rva	n2206
	.rva	n2207
	.rva	n2208
	.rva	n2209
	.rva	n2210
	.rva	n2211
	.rva	n2212
	.rva	n2213
	.rva	n2214
	.rva	n2215
	.rva	n2216
	.rva	n2217
	.rva	n2218
	.rva	n2219
	.rva	n2220
	.rva	n2221
	.rva	n2222
	.rva	n2223
	.rva	n2224
	.rva	n2225
	.rva	n2226
	.rva	n2227
	.rva	n2228
	.rva	n2229
	.rva	n2230
	.rva	n2231
	.rva	n2232
	.rva	n2233
	.rva	n2234
	.rva	n2235
	.rva	n2236
	.rva	n2237
	.rva	n2238
	.rva	n2239
	.rva	n2240
	.rva	n2241
	.rva	n2242
	.rva	n2243
	.rva	n2244
	.rva	n2245
	.rva	n2246
	.rva	n2247
	.rva	n2248
	.rva	n2249
	.rva	n2250
	.rva	n2251
	.rva	n2252
	.rva	n2253
	.rva	n2254
	.rva	n2255
	.rva	n2256
	.rva	n2257
	.rva	n2258
	.rva	n2259
	.rva	n2260
	.rva	n2261
	.rva	n2262
	.rva	n2263
	.rva	n2264
	.rva	n2265
	.rva	n2266
	.rva	n2267
	.rva	n2268
	.rva	n2269
	.rva	n2270
	.rva	n2271
	.rva	n2272
	.rva	n2273
	.rva	n2274
	.rva	n2275
	.rva	n2276
	.rva	n2277
	.rva	n2278
	.rva	n2279
	.rva	n2280
	.rva	n2281
	.rva	n2282
	.rva	n2283
	.rva	n2284
	.rva	n2285
	.rva	n2286
	.rva	n2287
	.rva	n2288
	.rva	n2289
	.rva	n2290
	.rva	n2291
	.rva	n2292
	.rva	n2293
	.rva	n2294
	.rva	n2295
	.rva	n2296
	.rva	n2297
	.rva	n2298
	.rva	n2299
	.rva	n2300
	.rva	n2301
	.rva	n2302
	.rva	n2303
	.rva	n2304
	.rva	n2305
	.rva	n2306
	.rva	n2307
	.rva	n2308
	.rva	n2309
	.rva	n2310
	.rva	n2311
	.rva	n2312
	.rva	n2313
	.rva	n2314
	.rva	n2315
	.rva	n2316
	.rva	n2317
	.rva	n2318
	.rva	n2319
	.rva	n2320
	.rva	n2321
	.rva	n2322
	.rva	n2323
	.rva	n2324
	.rva	n2325
	.rva	n2326
	.rva	n2327
	.rva	n2328
	.rva	n2329
	.rva	n2330
	.rva	n2331
	.rva	n2332
	.rva	n2333
	.rva	n2334
	.rva	n2335
	.rva	n2336
	.rva	n2337
	.rva	n2338
	.rva	n2339
	.rva	n2340
	.rva	n2341
	.rva	n2342
	.rva	n2343
	.rva	n2344
	.rva	n2345
	.rva	n2346
	.rva	n2347
	.rva	n2348
	.rva	n2349
	.rva	n2350
	.rva	n2351
	.rva	n2352
	.rva	n2353
	.rva	n2354
	.rva	n2355
	.rva	n2356
	.rva	n2357
	.rva	n2358
	.rva	n2359
	.rva	n2360
	.rva	n2361
	.rva	n2362
	.rva	n2363
	.rva	n2364
	.rva	n2365
	.rva	n2366
	.rva	n2367
	.rva	n2368
	.rva	n2369
	.rva	n2370
	.rva	n2371
	.rva	n2372
	.rva	n2373
	.rva	n2374
	.rva	n2375
	.rva	n2376
	.rva	n2377
	.rva	n2378
	.rva	n2379
	.rva	n2380
	.rva	n2381
	.rva	n2382
	.rva	n2383
	.rva	n2384
	.rva	n2385
	.rva	n2386
	.rva	n2387
	.rva	n2388
	.rva	n2389
	.rva	n2390
	.rva	n2391
	.rva	n2392
	.rva	n2393
	.rva	n2394
	.rva	n2395
	.rva	n2396
	.rva	n2397
	.rva	n2398
	.rva	n2399
	.rva	n2400
	.rva	n2401
	.rva	n2402
	.rva	n2403
	.rva	n2404
	.rva	n2405
	.rva	n2406
	.rva	n2407
	.rva	n2408
	.rva	n2409
	.rva	n2410
	.rva	n2411
	.rva	n2412
	.rva	n2413
	.rva	n2414
	.rva	n2415
	.rva	n2416
	.rva	n2417
	.rva	n2418
	.rva	n2419
	.rva	n2420
	.rva	n2421
	.rva	n2422
	.rva	n2423
	.rva	n2424
	.rva	n2425
	.rva	n2426
	.rva	n2427
	.rva	n2428
	.rva	n2429
	.rva	n2430
	.rva	n2431
	.rva	n2432
	.rva	n2433
	.rva	n2434
	.rva	n2435
	.rva	n2436
	.rva	n2437
	.rva	n2438
	.rva	n2439
	.rva	n1
# Export Ordinal Table
anords:
	.short	2439
	.short	1
	.short	2
	.short	3
	.short	4
	.short	5
	.short	6
	.short	7
	.short	8
	.short	9
	.short	10
	.short	11
	.short	12
	.short	13
	.short	14
	.short	15
	.short	16
	.short	17
	.short	18
	.short	19
	.short	20
	.short	21
	.short	22
	.short	23
	.short	24
	.short	25
	.short	26
	.short	27
	.short	28
	.short	29
	.short	30
	.short	31
	.short	32
	.short	33
	.short	34
	.short	35
	.short	36
	.short	37
	.short	38
	.short	39
	.short	40
	.short	41
	.short	42
	.short	43
	.short	44
	.short	45
	.short	46
	.short	47
	.short	48
	.short	49
	.short	50
	.short	51
	.short	52
	.short	53
	.short	54
	.short	55
	.short	56
	.short	57
	.short	58
	.short	59
	.short	60
	.short	61
	.short	62
	.short	63
	.short	64
	.short	65
	.short	66
	.short	67
	.short	68
	.short	69
	.short	70
	.short	71
	.short	72
	.short	73
	.short	74
	.short	75
	.short	76
	.short	77
	.short	78
	.short	79
	.short	80
	.short	81
	.short	82
	.short	83
	.short	84
	.short	85
	.short	86
	.short	87
	.short	88
	.short	89
	.short	90
	.short	91
	.short	92
	.short	93
	.short	94
	.short	95
	.short	96
	.short	97
	.short	98
	.short	99
	.short	100
	.short	101
	.short	102
	.short	103
	.short	104
	.short	105
	.short	106
	.short	107
	.short	108
	.short	109
	.short	110
	.short	111
	.short	112
	.short	113
	.short	114
	.short	115
	.short	116
	.short	117
	.short	118
	.short	119
	.short	120
	.short	121
	.short	122
	.short	123
	.short	124
	.short	125
	.short	126
	.short	127
	.short	128
	.short	129
	.short	130
	.short	131
	.short	132
	.short	133
	.short	134
	.short	135
	.short	136
	.short	137
	.short	138
	.short	139
	.short	140
	.short	141
	.short	142
	.short	143
	.short	144
	.short	145
	.short	146
	.short	147
	.short	148
	.short	149
	.short	150
	.short	151
	.short	152
	.short	153
	.short	154
	.short	155
	.short	156
	.short	157
	.short	158
	.short	159
	.short	160
	.short	161
	.short	162
	.short	163
	.short	164
	.short	165
	.short	166
	.short	167
	.short	168
	.short	169
	.short	170
	.short	171
	.short	172
	.short	173
	.short	174
	.short	175
	.short	176
	.short	177
	.short	178
	.short	179
	.short	180
	.short	181
	.short	182
	.short	183
	.short	184
	.short	185
	.short	186
	.short	187
	.short	188
	.short	189
	.short	190
	.short	191
	.short	192
	.short	193
	.short	194
	.short	195
	.short	196
	.short	197
	.short	198
	.short	199
	.short	200
	.short	201
	.short	202
	.short	203
	.short	204
	.short	205
	.short	206
	.short	207
	.short	208
	.short	209
	.short	210
	.short	211
	.short	212
	.short	213
	.short	214
	.short	215
	.short	216
	.short	217
	.short	218
	.short	219
	.short	220
	.short	221
	.short	222
	.short	223
	.short	224
	.short	225
	.short	226
	.short	227
	.short	228
	.short	229
	.short	230
	.short	231
	.short	232
	.short	233
	.short	234
	.short	235
	.short	236
	.short	237
	.short	238
	.short	239
	.short	240
	.short	241
	.short	242
	.short	243
	.short	244
	.short	245
	.short	246
	.short	247
	.short	248
	.short	249
	.short	250
	.short	251
	.short	252
	.short	253
	.short	254
	.short	255
	.short	256
	.short	257
	.short	258
	.short	259
	.short	260
	.short	261
	.short	262
	.short	263
	.short	264
	.short	265
	.short	266
	.short	267
	.short	268
	.short	269
	.short	270
	.short	271
	.short	272
	.short	273
	.short	274
	.short	275
	.short	276
	.short	277
	.short	278
	.short	279
	.short	280
	.short	281
	.short	282
	.short	283
	.short	284
	.short	285
	.short	286
	.short	287
	.short	288
	.short	289
	.short	290
	.short	291
	.short	292
	.short	293
	.short	294
	.short	295
	.short	296
	.short	297
	.short	298
	.short	299
	.short	300
	.short	301
	.short	302
	.short	303
	.short	304
	.short	305
	.short	306
	.short	307
	.short	308
	.short	309
	.short	310
	.short	311
	.short	312
	.short	313
	.short	314
	.short	315
	.short	316
	.short	317
	.short	318
	.short	319
	.short	320
	.short	321
	.short	322
	.short	323
	.short	324
	.short	325
	.short	326
	.short	327
	.short	328
	.short	329
	.short	330
	.short	331
	.short	332
	.short	333
	.short	334
	.short	335
	.short	336
	.short	337
	.short	338
	.short	339
	.short	340
	.short	341
	.short	342
	.short	343
	.short	344
	.short	345
	.short	346
	.short	347
	.short	348
	.short	349
	.short	350
	.short	351
	.short	352
	.short	353
	.short	354
	.short	355
	.short	356
	.short	357
	.short	358
	.short	359
	.short	360
	.short	361
	.short	362
	.short	363
	.short	364
	.short	365
	.short	366
	.short	367
	.short	368
	.short	369
	.short	370
	.short	371
	.short	372
	.short	373
	.short	374
	.short	375
	.short	376
	.short	377
	.short	378
	.short	379
	.short	380
	.short	381
	.short	382
	.short	383
	.short	384
	.short	385
	.short	386
	.short	387
	.short	388
	.short	389
	.short	390
	.short	391
	.short	392
	.short	393
	.short	394
	.short	395
	.short	396
	.short	397
	.short	398
	.short	399
	.short	400
	.short	401
	.short	402
	.short	403
	.short	404
	.short	405
	.short	406
	.short	407
	.short	408
	.short	409
	.short	410
	.short	411
	.short	412
	.short	413
	.short	414
	.short	415
	.short	416
	.short	417
	.short	418
	.short	419
	.short	420
	.short	421
	.short	422
	.short	423
	.short	424
	.short	425
	.short	426
	.short	427
	.short	428
	.short	429
	.short	430
	.short	431
	.short	432
	.short	433
	.short	434
	.short	435
	.short	436
	.short	437
	.short	438
	.short	439
	.short	440
	.short	441
	.short	442
	.short	443
	.short	444
	.short	445
	.short	446
	.short	447
	.short	448
	.short	449
	.short	450
	.short	451
	.short	452
	.short	453
	.short	454
	.short	455
	.short	456
	.short	457
	.short	458
	.short	459
	.short	460
	.short	461
	.short	462
	.short	463
	.short	464
	.short	465
	.short	466
	.short	467
	.short	468
	.short	469
	.short	470
	.short	471
	.short	472
	.short	473
	.short	474
	.short	475
	.short	476
	.short	477
	.short	478
	.short	479
	.short	480
	.short	481
	.short	482
	.short	483
	.short	484
	.short	485
	.short	486
	.short	487
	.short	488
	.short	489
	.short	490
	.short	491
	.short	492
	.short	493
	.short	494
	.short	495
	.short	496
	.short	497
	.short	498
	.short	499
	.short	500
	.short	501
	.short	502
	.short	503
	.short	504
	.short	505
	.short	506
	.short	507
	.short	508
	.short	509
	.short	510
	.short	511
	.short	512
	.short	513
	.short	514
	.short	515
	.short	516
	.short	517
	.short	518
	.short	519
	.short	520
	.short	521
	.short	522
	.short	523
	.short	524
	.short	525
	.short	526
	.short	527
	.short	528
	.short	529
	.short	530
	.short	531
	.short	532
	.short	533
	.short	534
	.short	535
	.short	536
	.short	537
	.short	538
	.short	539
	.short	540
	.short	541
	.short	542
	.short	543
	.short	544
	.short	545
	.short	546
	.short	547
	.short	548
	.short	549
	.short	550
	.short	551
	.short	552
	.short	553
	.short	554
	.short	555
	.short	556
	.short	557
	.short	558
	.short	559
	.short	560
	.short	561
	.short	562
	.short	563
	.short	564
	.short	565
	.short	566
	.short	567
	.short	568
	.short	569
	.short	570
	.short	571
	.short	572
	.short	573
	.short	574
	.short	575
	.short	576
	.short	577
	.short	578
	.short	579
	.short	580
	.short	581
	.short	582
	.short	583
	.short	584
	.short	585
	.short	586
	.short	587
	.short	588
	.short	589
	.short	590
	.short	591
	.short	592
	.short	593
	.short	594
	.short	595
	.short	596
	.short	597
	.short	598
	.short	599
	.short	600
	.short	601
	.short	602
	.short	603
	.short	604
	.short	605
	.short	606
	.short	607
	.short	608
	.short	609
	.short	610
	.short	611
	.short	612
	.short	613
	.short	614
	.short	615
	.short	616
	.short	617
	.short	618
	.short	619
	.short	620
	.short	621
	.short	622
	.short	623
	.short	624
	.short	625
	.short	626
	.short	627
	.short	628
	.short	629
	.short	630
	.short	631
	.short	632
	.short	633
	.short	634
	.short	635
	.short	636
	.short	637
	.short	638
	.short	639
	.short	640
	.short	641
	.short	642
	.short	643
	.short	644
	.short	645
	.short	646
	.short	647
	.short	648
	.short	649
	.short	650
	.short	651
	.short	652
	.short	653
	.short	654
	.short	655
	.short	656
	.short	657
	.short	658
	.short	659
	.short	660
	.short	661
	.short	662
	.short	663
	.short	664
	.short	665
	.short	666
	.short	667
	.short	668
	.short	669
	.short	670
	.short	671
	.short	672
	.short	673
	.short	674
	.short	675
	.short	676
	.short	677
	.short	678
	.short	679
	.short	680
	.short	681
	.short	682
	.short	683
	.short	684
	.short	685
	.short	686
	.short	687
	.short	688
	.short	689
	.short	690
	.short	691
	.short	692
	.short	693
	.short	694
	.short	695
	.short	696
	.short	697
	.short	698
	.short	699
	.short	700
	.short	701
	.short	702
	.short	703
	.short	704
	.short	705
	.short	706
	.short	707
	.short	708
	.short	709
	.short	710
	.short	711
	.short	712
	.short	713
	.short	714
	.short	715
	.short	716
	.short	717
	.short	718
	.short	719
	.short	720
	.short	721
	.short	722
	.short	723
	.short	724
	.short	725
	.short	726
	.short	727
	.short	728
	.short	729
	.short	730
	.short	731
	.short	732
	.short	733
	.short	734
	.short	735
	.short	736
	.short	737
	.short	738
	.short	739
	.short	740
	.short	741
	.short	742
	.short	743
	.short	744
	.short	745
	.short	746
	.short	747
	.short	748
	.short	749
	.short	750
	.short	751
	.short	752
	.short	753
	.short	754
	.short	755
	.short	756
	.short	757
	.short	758
	.short	759
	.short	760
	.short	761
	.short	762
	.short	763
	.short	764
	.short	765
	.short	766
	.short	767
	.short	768
	.short	769
	.short	770
	.short	771
	.short	772
	.short	773
	.short	774
	.short	775
	.short	776
	.short	777
	.short	778
	.short	779
	.short	780
	.short	781
	.short	782
	.short	783
	.short	784
	.short	785
	.short	786
	.short	787
	.short	788
	.short	789
	.short	790
	.short	791
	.short	792
	.short	793
	.short	794
	.short	795
	.short	796
	.short	797
	.short	798
	.short	799
	.short	800
	.short	801
	.short	802
	.short	803
	.short	804
	.short	805
	.short	806
	.short	807
	.short	808
	.short	809
	.short	810
	.short	811
	.short	812
	.short	813
	.short	814
	.short	815
	.short	816
	.short	817
	.short	818
	.short	819
	.short	820
	.short	821
	.short	822
	.short	823
	.short	824
	.short	825
	.short	826
	.short	827
	.short	828
	.short	829
	.short	830
	.short	831
	.short	832
	.short	833
	.short	834
	.short	835
	.short	836
	.short	837
	.short	838
	.short	839
	.short	840
	.short	841
	.short	842
	.short	843
	.short	844
	.short	845
	.short	846
	.short	847
	.short	848
	.short	849
	.short	850
	.short	851
	.short	852
	.short	853
	.short	854
	.short	855
	.short	856
	.short	857
	.short	858
	.short	859
	.short	860
	.short	861
	.short	862
	.short	863
	.short	864
	.short	865
	.short	866
	.short	867
	.short	868
	.short	869
	.short	870
	.short	871
	.short	872
	.short	873
	.short	874
	.short	875
	.short	876
	.short	877
	.short	878
	.short	879
	.short	880
	.short	881
	.short	882
	.short	883
	.short	884
	.short	885
	.short	886
	.short	887
	.short	888
	.short	889
	.short	890
	.short	891
	.short	892
	.short	893
	.short	894
	.short	895
	.short	896
	.short	897
	.short	898
	.short	899
	.short	900
	.short	901
	.short	902
	.short	903
	.short	904
	.short	905
	.short	906
	.short	907
	.short	908
	.short	909
	.short	910
	.short	911
	.short	912
	.short	913
	.short	914
	.short	915
	.short	916
	.short	917
	.short	918
	.short	919
	.short	920
	.short	921
	.short	922
	.short	923
	.short	924
	.short	925
	.short	926
	.short	927
	.short	928
	.short	929
	.short	930
	.short	931
	.short	932
	.short	933
	.short	934
	.short	935
	.short	936
	.short	937
	.short	938
	.short	939
	.short	940
	.short	941
	.short	942
	.short	943
	.short	944
	.short	945
	.short	946
	.short	947
	.short	948
	.short	949
	.short	950
	.short	951
	.short	952
	.short	953
	.short	954
	.short	955
	.short	956
	.short	957
	.short	958
	.short	959
	.short	960
	.short	961
	.short	962
	.short	963
	.short	964
	.short	965
	.short	966
	.short	967
	.short	968
	.short	969
	.short	970
	.short	971
	.short	972
	.short	973
	.short	974
	.short	975
	.short	976
	.short	977
	.short	978
	.short	979
	.short	980
	.short	981
	.short	982
	.short	983
	.short	984
	.short	985
	.short	986
	.short	987
	.short	988
	.short	989
	.short	990
	.short	991
	.short	992
	.short	993
	.short	994
	.short	995
	.short	996
	.short	997
	.short	998
	.short	999
	.short	1000
	.short	1001
	.short	1002
	.short	1003
	.short	1004
	.short	1005
	.short	1006
	.short	1007
	.short	1008
	.short	1009
	.short	1010
	.short	1011
	.short	1012
	.short	1013
	.short	1014
	.short	1015
	.short	1016
	.short	1017
	.short	1018
	.short	1019
	.short	1020
	.short	1021
	.short	1022
	.short	1023
	.short	1024
	.short	1025
	.short	1026
	.short	1027
	.short	1028
	.short	1029
	.short	1030
	.short	1031
	.short	1032
	.short	1033
	.short	1034
	.short	1035
	.short	1036
	.short	1037
	.short	1038
	.short	1039
	.short	1040
	.short	1041
	.short	1042
	.short	1043
	.short	1044
	.short	1045
	.short	1046
	.short	1047
	.short	1048
	.short	1049
	.short	1050
	.short	1051
	.short	1052
	.short	1053
	.short	1054
	.short	1055
	.short	1056
	.short	1057
	.short	1058
	.short	1059
	.short	1060
	.short	1061
	.short	1062
	.short	1063
	.short	1064
	.short	1065
	.short	1066
	.short	1067
	.short	1068
	.short	1069
	.short	1070
	.short	1071
	.short	1072
	.short	1073
	.short	1074
	.short	1075
	.short	1076
	.short	1077
	.short	1078
	.short	1079
	.short	1080
	.short	1081
	.short	1082
	.short	1083
	.short	1084
	.short	1085
	.short	1086
	.short	1087
	.short	1088
	.short	1089
	.short	1090
	.short	1091
	.short	1092
	.short	1093
	.short	1094
	.short	1095
	.short	1096
	.short	1097
	.short	1098
	.short	1099
	.short	1100
	.short	1101
	.short	1102
	.short	1103
	.short	1104
	.short	1105
	.short	1106
	.short	1107
	.short	1108
	.short	1109
	.short	1110
	.short	1111
	.short	1112
	.short	1113
	.short	1114
	.short	1115
	.short	1116
	.short	1117
	.short	1118
	.short	1119
	.short	1120
	.short	1121
	.short	1122
	.short	1123
	.short	1124
	.short	1125
	.short	1126
	.short	1127
	.short	1128
	.short	1129
	.short	1130
	.short	1131
	.short	1132
	.short	1133
	.short	1134
	.short	1135
	.short	1136
	.short	1137
	.short	1138
	.short	1139
	.short	1140
	.short	1141
	.short	1142
	.short	1143
	.short	1144
	.short	1145
	.short	1146
	.short	1147
	.short	1148
	.short	1149
	.short	1150
	.short	1151
	.short	1152
	.short	1153
	.short	1154
	.short	1155
	.short	1156
	.short	1157
	.short	1158
	.short	1159
	.short	1160
	.short	1161
	.short	1162
	.short	1163
	.short	1164
	.short	1165
	.short	1166
	.short	1167
	.short	1168
	.short	1169
	.short	1170
	.short	1171
	.short	1172
	.short	1173
	.short	1174
	.short	1175
	.short	1176
	.short	1177
	.short	1178
	.short	1179
	.short	1180
	.short	1181
	.short	1182
	.short	1183
	.short	1184
	.short	1185
	.short	1186
	.short	1187
	.short	1188
	.short	1189
	.short	1190
	.short	1191
	.short	1192
	.short	1193
	.short	1194
	.short	1195
	.short	1196
	.short	1197
	.short	1198
	.short	1199
	.short	1200
	.short	1201
	.short	1202
	.short	1203
	.short	1204
	.short	1205
	.short	1206
	.short	1207
	.short	1208
	.short	1209
	.short	1210
	.short	1211
	.short	1212
	.short	1213
	.short	1214
	.short	1215
	.short	1216
	.short	1217
	.short	1218
	.short	1219
	.short	1220
	.short	1221
	.short	1222
	.short	1223
	.short	1224
	.short	1225
	.short	1226
	.short	1227
	.short	1228
	.short	1229
	.short	1230
	.short	1231
	.short	1232
	.short	1233
	.short	1234
	.short	1235
	.short	1236
	.short	1237
	.short	1238
	.short	1239
	.short	1240
	.short	1241
	.short	1242
	.short	1243
	.short	1244
	.short	1245
	.short	1246
	.short	1247
	.short	1248
	.short	1249
	.short	1250
	.short	1251
	.short	1252
	.short	1253
	.short	1254
	.short	1255
	.short	1256
	.short	1257
	.short	1258
	.short	1259
	.short	1260
	.short	1261
	.short	1262
	.short	1263
	.short	1264
	.short	1265
	.short	1266
	.short	1267
	.short	1268
	.short	1269
	.short	1270
	.short	1271
	.short	1272
	.short	1273
	.short	1274
	.short	1275
	.short	1276
	.short	1277
	.short	1278
	.short	1279
	.short	1280
	.short	1281
	.short	1282
	.short	1283
	.short	1284
	.short	1285
	.short	1286
	.short	1287
	.short	1288
	.short	1289
	.short	1290
	.short	1291
	.short	1292
	.short	1293
	.short	1294
	.short	1295
	.short	1296
	.short	1297
	.short	1298
	.short	1299
	.short	1300
	.short	1301
	.short	1302
	.short	1303
	.short	1304
	.short	1305
	.short	1306
	.short	1307
	.short	1308
	.short	1309
	.short	1310
	.short	1311
	.short	1312
	.short	1313
	.short	1314
	.short	1315
	.short	1316
	.short	1317
	.short	1318
	.short	1319
	.short	1320
	.short	1321
	.short	1322
	.short	1323
	.short	1324
	.short	1325
	.short	1326
	.short	1327
	.short	1328
	.short	1329
	.short	1330
	.short	1331
	.short	1332
	.short	1333
	.short	1334
	.short	1335
	.short	1336
	.short	1337
	.short	1338
	.short	1339
	.short	1340
	.short	1341
	.short	1342
	.short	1343
	.short	1344
	.short	1345
	.short	1346
	.short	1347
	.short	1348
	.short	1349
	.short	1350
	.short	1351
	.short	1352
	.short	1353
	.short	1354
	.short	1355
	.short	1356
	.short	1357
	.short	1358
	.short	1359
	.short	1360
	.short	1361
	.short	1362
	.short	1363
	.short	1364
	.short	1365
	.short	1366
	.short	1367
	.short	1368
	.short	1369
	.short	1370
	.short	1371
	.short	1372
	.short	1373
	.short	1374
	.short	1375
	.short	1376
	.short	1377
	.short	1378
	.short	1379
	.short	1380
	.short	1381
	.short	1382
	.short	1383
	.short	1384
	.short	1385
	.short	1386
	.short	1387
	.short	1388
	.short	1389
	.short	1390
	.short	1391
	.short	1392
	.short	1393
	.short	1394
	.short	1395
	.short	1396
	.short	1397
	.short	1398
	.short	1399
	.short	1400
	.short	1401
	.short	1402
	.short	1403
	.short	1404
	.short	1405
	.short	1406
	.short	1407
	.short	1408
	.short	1409
	.short	1410
	.short	1411
	.short	1412
	.short	1413
	.short	1414
	.short	1415
	.short	1416
	.short	1417
	.short	1418
	.short	1419
	.short	1420
	.short	1421
	.short	1422
	.short	1423
	.short	1424
	.short	1425
	.short	1426
	.short	1427
	.short	1428
	.short	1429
	.short	1430
	.short	1431
	.short	1432
	.short	1433
	.short	1434
	.short	1435
	.short	1436
	.short	1437
	.short	1438
	.short	1439
	.short	1440
	.short	1441
	.short	1442
	.short	1443
	.short	1444
	.short	1445
	.short	1446
	.short	1447
	.short	1448
	.short	1449
	.short	1450
	.short	1451
	.short	1452
	.short	1453
	.short	1454
	.short	1455
	.short	1456
	.short	1457
	.short	1458
	.short	1459
	.short	1460
	.short	1461
	.short	1462
	.short	1463
	.short	1464
	.short	1465
	.short	1466
	.short	1467
	.short	1468
	.short	1469
	.short	1470
	.short	1471
	.short	1472
	.short	1473
	.short	1474
	.short	1475
	.short	1476
	.short	1477
	.short	1478
	.short	1479
	.short	1480
	.short	1481
	.short	1482
	.short	1483
	.short	1484
	.short	1485
	.short	1486
	.short	1487
	.short	1488
	.short	1489
	.short	1490
	.short	1491
	.short	1492
	.short	1493
	.short	1494
	.short	1495
	.short	1496
	.short	1497
	.short	1498
	.short	1499
	.short	1500
	.short	1501
	.short	1502
	.short	1503
	.short	1504
	.short	1505
	.short	1506
	.short	1507
	.short	1508
	.short	1509
	.short	1510
	.short	1511
	.short	1512
	.short	1513
	.short	1514
	.short	1515
	.short	1516
	.short	1517
	.short	1518
	.short	1519
	.short	1520
	.short	1521
	.short	1522
	.short	1523
	.short	1524
	.short	1525
	.short	1526
	.short	1527
	.short	1528
	.short	1529
	.short	1530
	.short	1531
	.short	1532
	.short	1533
	.short	1534
	.short	1535
	.short	1536
	.short	1537
	.short	1538
	.short	1539
	.short	1540
	.short	1541
	.short	1542
	.short	1543
	.short	1544
	.short	1545
	.short	1546
	.short	1547
	.short	1548
	.short	1549
	.short	1550
	.short	1551
	.short	1552
	.short	1553
	.short	1554
	.short	1555
	.short	1556
	.short	1557
	.short	1558
	.short	1559
	.short	1560
	.short	1561
	.short	1562
	.short	1563
	.short	1564
	.short	1565
	.short	1566
	.short	1567
	.short	1568
	.short	1569
	.short	1570
	.short	1571
	.short	1572
	.short	1573
	.short	1574
	.short	1575
	.short	1576
	.short	1577
	.short	1578
	.short	1579
	.short	1580
	.short	1581
	.short	1582
	.short	1583
	.short	1584
	.short	1585
	.short	1586
	.short	1587
	.short	1588
	.short	1589
	.short	1590
	.short	1591
	.short	1592
	.short	1593
	.short	1594
	.short	1595
	.short	1596
	.short	1597
	.short	1598
	.short	1599
	.short	1600
	.short	1601
	.short	1602
	.short	1603
	.short	1604
	.short	1605
	.short	1606
	.short	1607
	.short	1608
	.short	1609
	.short	1610
	.short	1611
	.short	1612
	.short	1613
	.short	1614
	.short	1615
	.short	1616
	.short	1617
	.short	1618
	.short	1619
	.short	1620
	.short	1621
	.short	1622
	.short	1623
	.short	1624
	.short	1625
	.short	1626
	.short	1627
	.short	1628
	.short	1629
	.short	1630
	.short	1631
	.short	1632
	.short	1633
	.short	1634
	.short	1635
	.short	1636
	.short	1637
	.short	1638
	.short	1639
	.short	1640
	.short	1641
	.short	1642
	.short	1643
	.short	1644
	.short	1645
	.short	1646
	.short	1647
	.short	1648
	.short	1649
	.short	1650
	.short	1651
	.short	1652
	.short	1653
	.short	1654
	.short	1655
	.short	1656
	.short	1657
	.short	1658
	.short	1659
	.short	1660
	.short	1661
	.short	1662
	.short	1663
	.short	1664
	.short	1665
	.short	1666
	.short	1667
	.short	1668
	.short	1669
	.short	1670
	.short	1671
	.short	1672
	.short	1673
	.short	1674
	.short	1675
	.short	1676
	.short	1677
	.short	1678
	.short	1679
	.short	1680
	.short	1681
	.short	1682
	.short	1683
	.short	1684
	.short	1685
	.short	1686
	.short	1687
	.short	1688
	.short	1689
	.short	1690
	.short	1691
	.short	1692
	.short	1693
	.short	1694
	.short	1695
	.short	1696
	.short	1697
	.short	1698
	.short	1699
	.short	1700
	.short	1701
	.short	1702
	.short	1703
	.short	1704
	.short	1705
	.short	1706
	.short	1707
	.short	1708
	.short	1709
	.short	1710
	.short	1711
	.short	1712
	.short	1713
	.short	1714
	.short	1715
	.short	1716
	.short	1717
	.short	1718
	.short	1719
	.short	1720
	.short	1721
	.short	1722
	.short	1723
	.short	1724
	.short	1725
	.short	1726
	.short	1727
	.short	1728
	.short	1729
	.short	1730
	.short	1731
	.short	1732
	.short	1733
	.short	1734
	.short	1735
	.short	1736
	.short	1737
	.short	1738
	.short	1739
	.short	1740
	.short	1741
	.short	1742
	.short	1743
	.short	1744
	.short	1745
	.short	1746
	.short	1747
	.short	1748
	.short	1749
	.short	1750
	.short	1751
	.short	1752
	.short	1753
	.short	1754
	.short	1755
	.short	1756
	.short	1757
	.short	1758
	.short	1759
	.short	1760
	.short	1761
	.short	1762
	.short	1763
	.short	1764
	.short	1765
	.short	1766
	.short	1767
	.short	1768
	.short	1769
	.short	1770
	.short	1771
	.short	1772
	.short	1773
	.short	1774
	.short	1775
	.short	1776
	.short	1777
	.short	1778
	.short	1779
	.short	1780
	.short	1781
	.short	1782
	.short	1783
	.short	1784
	.short	1785
	.short	1786
	.short	1787
	.short	1788
	.short	1789
	.short	1790
	.short	1791
	.short	1792
	.short	1793
	.short	1794
	.short	1795
	.short	1796
	.short	1797
	.short	1798
	.short	1799
	.short	1800
	.short	1801
	.short	1802
	.short	1803
	.short	1804
	.short	1805
	.short	1806
	.short	1807
	.short	1808
	.short	1809
	.short	1810
	.short	1811
	.short	1812
	.short	1813
	.short	1814
	.short	1815
	.short	1816
	.short	1817
	.short	1818
	.short	1819
	.short	1820
	.short	1821
	.short	1822
	.short	1823
	.short	1824
	.short	1825
	.short	1826
	.short	1827
	.short	1828
	.short	1829
	.short	1830
	.short	1831
	.short	1832
	.short	1833
	.short	1834
	.short	1835
	.short	1836
	.short	1837
	.short	1838
	.short	1839
	.short	1840
	.short	1841
	.short	1842
	.short	1843
	.short	1844
	.short	1845
	.short	1846
	.short	1847
	.short	1848
	.short	1849
	.short	1850
	.short	1851
	.short	1852
	.short	1853
	.short	1854
	.short	1855
	.short	1856
	.short	1857
	.short	1858
	.short	1859
	.short	1860
	.short	1861
	.short	1862
	.short	1863
	.short	1864
	.short	1865
	.short	1866
	.short	1867
	.short	1868
	.short	1869
	.short	1870
	.short	1871
	.short	1872
	.short	1873
	.short	1874
	.short	1875
	.short	1876
	.short	1877
	.short	1878
	.short	1879
	.short	1880
	.short	1881
	.short	1882
	.short	1883
	.short	1884
	.short	1885
	.short	1886
	.short	1887
	.short	1888
	.short	1889
	.short	1890
	.short	1891
	.short	1892
	.short	1893
	.short	1894
	.short	1895
	.short	1896
	.short	1897
	.short	1898
	.short	1899
	.short	1900
	.short	1901
	.short	1902
	.short	1903
	.short	1904
	.short	1905
	.short	1906
	.short	1907
	.short	1908
	.short	1909
	.short	1910
	.short	1911
	.short	1912
	.short	1913
	.short	1914
	.short	1915
	.short	1916
	.short	1917
	.short	1918
	.short	1919
	.short	1920
	.short	1921
	.short	1922
	.short	1923
	.short	1924
	.short	1925
	.short	1926
	.short	1927
	.short	1928
	.short	1929
	.short	1930
	.short	1931
	.short	1932
	.short	1933
	.short	1934
	.short	1935
	.short	1936
	.short	1937
	.short	1938
	.short	1939
	.short	1940
	.short	1941
	.short	1942
	.short	1943
	.short	1944
	.short	1945
	.short	1946
	.short	1947
	.short	1948
	.short	1949
	.short	1950
	.short	1951
	.short	1952
	.short	1953
	.short	1954
	.short	1955
	.short	1956
	.short	1957
	.short	1958
	.short	1959
	.short	1960
	.short	1961
	.short	1962
	.short	1963
	.short	1964
	.short	1965
	.short	1966
	.short	1967
	.short	1968
	.short	1969
	.short	1970
	.short	1971
	.short	1972
	.short	1973
	.short	1974
	.short	1975
	.short	1976
	.short	1977
	.short	1978
	.short	1979
	.short	1980
	.short	1981
	.short	1982
	.short	1983
	.short	1984
	.short	1985
	.short	1986
	.short	1987
	.short	1988
	.short	1989
	.short	1990
	.short	1991
	.short	1992
	.short	1993
	.short	1994
	.short	1995
	.short	1996
	.short	1997
	.short	1998
	.short	1999
	.short	2000
	.short	2001
	.short	2002
	.short	2003
	.short	2004
	.short	2005
	.short	2006
	.short	2007
	.short	2008
	.short	2009
	.short	2010
	.short	2011
	.short	2012
	.short	2013
	.short	2014
	.short	2015
	.short	2016
	.short	2017
	.short	2018
	.short	2019
	.short	2020
	.short	2021
	.short	2022
	.short	2023
	.short	2024
	.short	2025
	.short	2026
	.short	2027
	.short	2028
	.short	2029
	.short	2030
	.short	2031
	.short	2032
	.short	2033
	.short	2034
	.short	2035
	.short	2036
	.short	2037
	.short	2038
	.short	2039
	.short	2040
	.short	2041
	.short	2042
	.short	2043
	.short	2044
	.short	2045
	.short	2046
	.short	2047
	.short	2048
	.short	2049
	.short	2050
	.short	2051
	.short	2052
	.short	2053
	.short	2054
	.short	2055
	.short	2056
	.short	2057
	.short	2058
	.short	2059
	.short	2060
	.short	2061
	.short	2062
	.short	2063
	.short	2064
	.short	2065
	.short	2066
	.short	2067
	.short	2068
	.short	2069
	.short	2070
	.short	2071
	.short	2072
	.short	2073
	.short	2074
	.short	2075
	.short	2076
	.short	2077
	.short	2078
	.short	2079
	.short	2080
	.short	2081
	.short	2082
	.short	2083
	.short	2084
	.short	2085
	.short	2086
	.short	2087
	.short	2088
	.short	2089
	.short	2090
	.short	2091
	.short	2092
	.short	2093
	.short	2094
	.short	2095
	.short	2096
	.short	2097
	.short	2098
	.short	2099
	.short	2100
	.short	2101
	.short	2102
	.short	2103
	.short	2104
	.short	2105
	.short	2106
	.short	2107
	.short	2108
	.short	2109
	.short	2110
	.short	2111
	.short	2112
	.short	2113
	.short	2114
	.short	2115
	.short	2116
	.short	2117
	.short	2118
	.short	2119
	.short	2120
	.short	2121
	.short	2122
	.short	2123
	.short	2124
	.short	2125
	.short	2126
	.short	2127
	.short	2128
	.short	2129
	.short	2130
	.short	2131
	.short	2132
	.short	2133
	.short	2134
	.short	2135
	.short	2136
	.short	2137
	.short	2138
	.short	2139
	.short	2140
	.short	2141
	.short	2142
	.short	2143
	.short	2144
	.short	2145
	.short	2146
	.short	2147
	.short	2148
	.short	2149
	.short	2150
	.short	2151
	.short	2152
	.short	2153
	.short	2154
	.short	2155
	.short	2156
	.short	2157
	.short	2158
	.short	2159
	.short	2160
	.short	2161
	.short	2162
	.short	2163
	.short	2164
	.short	2165
	.short	2166
	.short	2167
	.short	2168
	.short	2169
	.short	2170
	.short	2171
	.short	2172
	.short	2173
	.short	2174
	.short	2175
	.short	2176
	.short	2177
	.short	2178
	.short	2179
	.short	2180
	.short	2181
	.short	2182
	.short	2183
	.short	2184
	.short	2185
	.short	2186
	.short	2187
	.short	2188
	.short	2189
	.short	2190
	.short	2191
	.short	2192
	.short	2193
	.short	2194
	.short	2195
	.short	2196
	.short	2197
	.short	2198
	.short	2199
	.short	2200
	.short	2201
	.short	2202
	.short	2203
	.short	2204
	.short	2205
	.short	2206
	.short	2207
	.short	2208
	.short	2209
	.short	2210
	.short	2211
	.short	2212
	.short	2213
	.short	2214
	.short	2215
	.short	2216
	.short	2217
	.short	2218
	.short	2219
	.short	2220
	.short	2221
	.short	2222
	.short	2223
	.short	2224
	.short	2225
	.short	2226
	.short	2227
	.short	2228
	.short	2229
	.short	2230
	.short	2231
	.short	2232
	.short	2233
	.short	2234
	.short	2235
	.short	2236
	.short	2237
	.short	2238
	.short	2239
	.short	2240
	.short	2241
	.short	2242
	.short	2243
	.short	2244
	.short	2245
	.short	2246
	.short	2247
	.short	2248
	.short	2249
	.short	2250
	.short	2251
	.short	2252
	.short	2253
	.short	2254
	.short	2255
	.short	2256
	.short	2257
	.short	2258
	.short	2259
	.short	2260
	.short	2261
	.short	2262
	.short	2263
	.short	2264
	.short	2265
	.short	2266
	.short	2267
	.short	2268
	.short	2269
	.short	2270
	.short	2271
	.short	2272
	.short	2273
	.short	2274
	.short	2275
	.short	2276
	.short	2277
	.short	2278
	.short	2279
	.short	2280
	.short	2281
	.short	2282
	.short	2283
	.short	2284
	.short	2285
	.short	2286
	.short	2287
	.short	2288
	.short	2289
	.short	2290
	.short	2291
	.short	2292
	.short	2293
	.short	2294
	.short	2295
	.short	2296
	.short	2297
	.short	2298
	.short	2299
	.short	2300
	.short	2301
	.short	2302
	.short	2303
	.short	2304
	.short	2305
	.short	2306
	.short	2307
	.short	2308
	.short	2309
	.short	2310
	.short	2311
	.short	2312
	.short	2313
	.short	2314
	.short	2315
	.short	2316
	.short	2317
	.short	2318
	.short	2319
	.short	2320
	.short	2321
	.short	2322
	.short	2323
	.short	2324
	.short	2325
	.short	2326
	.short	2327
	.short	2328
	.short	2329
	.short	2330
	.short	2331
	.short	2332
	.short	2333
	.short	2334
	.short	2335
	.short	2336
	.short	2337
	.short	2338
	.short	2339
	.short	2340
	.short	2341
	.short	2342
	.short	2343
	.short	2344
	.short	2345
	.short	2346
	.short	2347
	.short	2348
	.short	2349
	.short	2350
	.short	2351
	.short	2352
	.short	2353
	.short	2354
	.short	2355
	.short	2356
	.short	2357
	.short	2358
	.short	2359
	.short	2360
	.short	2361
	.short	2362
	.short	2363
	.short	2364
	.short	2365
	.short	2366
	.short	2367
	.short	2368
	.short	2369
	.short	2370
	.short	2371
	.short	2372
	.short	2373
	.short	2374
	.short	2375
	.short	2376
	.short	2377
	.short	2378
	.short	2379
	.short	2380
	.short	2381
	.short	2382
	.short	2383
	.short	2384
	.short	2385
	.short	2386
	.short	2387
	.short	2388
	.short	2389
	.short	2390
	.short	2391
	.short	2392
	.short	2393
	.short	2394
	.short	2395
	.short	2396
	.short	2397
	.short	2398
	.short	2399
	.short	2400
	.short	2401
	.short	2402
	.short	2403
	.short	2404
	.short	2405
	.short	2406
	.short	2407
	.short	2408
	.short	2409
	.short	2410
	.short	2411
	.short	2412
	.short	2413
	.short	2414
	.short	2415
	.short	2416
	.short	2417
	.short	2418
	.short	2419
	.short	2420
	.short	2421
	.short	2422
	.short	2423
	.short	2424
	.short	2425
	.short	2426
	.short	2427
	.short	2428
	.short	2429
	.short	2430
	.short	2431
	.short	2432
	.short	2433
	.short	2434
	.short	2435
	.short	2436
	.short	2437
	.short	2438
	.short	0
# Export Name Table
n2440:	.asciz	"DONT_UPPER"
n2:	.asciz	"EXA_prog_trigger"
n3:	.asciz	"MAX_PC_CLASS"
n4:	.asciz	"MAX_PC_RACE"
n5:	.asciz	"MOBtrigger"
n6:	.asciz	"_Z10RelDestroy13relation_typePvS0_"
n7:	.asciz	"_Z10accept_newi"
n8:	.asciz	"_Z10act_stringPKcP9char_dataS2_PKvS4_i"
n9:	.asciz	"_Z10actiondescP9char_dataP8obj_data"
n10:	.asciz	"_Z10add_rosterP9clan_dataPKciiii"
n11:	.asciz	"_Z10add_socialP11social_type"
n12:	.asciz	"_Z10can_astralP9char_dataS0_"
n13:	.asciz	"_Z10can_removeP9char_dataP10board_data"
n14:	.asciz	"_Z10capitalizePKc"
n15:	.asciz	"_Z10carried_byP8obj_data"
n16:	.asciz	"_Z10ch_slookupP9char_dataPKc"
n17:	.asciz	"_Z10char_checkv"
n18:	.asciz	"_Z10check_bansP9char_datai"
n19:	.asciz	"_Z10check_gripP9char_dataS0_"
n20:	.asciz	"_Z10check_hashPKc"
n21:	.asciz	"_Z10check_saveiiP9char_dataS0_"
n22:	.asciz	"_Z10clean_roomP15room_index_data"
n23:	.asciz	"_Z10clear_charP9char_data"
n24:	.asciz	"_Z10clear_roomii"
n25:	.asciz	"_Z10close_areaP9area_data"
n26:	.asciz	"_Z10copy_morphP10morph_dataS0_"
n27:	.asciz	"_Z10could_dualP9char_data"
n28:	.asciz	"_Z10countlangsi"
n29:	.asciz	"_Z10damage_objP8obj_data"
n30:	.asciz	"_Z10delete_mobP14mob_index_data"
n31:	.asciz	"_Z10delete_objP14obj_index_data"
n32:	.asciz	"_Z10dice_parseP9char_dataiPKc"
n33:	.asciz	"_Z10do_mprmtagP9char_dataPKc"
n34:	.asciz	"_Z10do_mpstrewP9char_dataPKc"
n35:	.asciz	"_Z10do_unmorphP9char_data"
n36:	.asciz	"_Z10equip_charP9char_dataP8obj_datai"
n37:	.asciz	"_Z10find_boardP9char_data"
n38:	.asciz	"_Z10find_fixerP9char_data"
n39:	.asciz	"_Z10find_morphP9char_dataPKcb"
n40:	.asciz	"_Z10find_quillP9char_data"
n41:	.asciz	"_Z10find_skillP9char_dataPKcb"
n42:	.asciz	"_Z10find_spellP9char_dataPKcb"
n43:	.asciz	"_Z10find_whogrP15descriptor_dataP7whogr_s"
n44:	.asciz	"_Z10found_preyP9char_dataS0_"
n45:	.asciz	"_Z10fread_cellP9__sFILE64ii"
n46:	.asciz	"_Z10fread_charP9char_dataP9__sFILE64bb"
n47:	.asciz	"_Z10fread_clanP9clan_dataP9__sFILE64"
n48:	.asciz	"_Z10fread_lineP9__sFILE64"
n49:	.asciz	"_Z10fread_newsP9news_dataP9__sFILE64"
n50:	.asciz	"_Z10fread_wordP9__sFILE64"
n51:	.asciz	"_Z10free_boardP10board_data"
n52:	.asciz	"_Z10free_clansv"
n53:	.asciz	"_Z10free_deityP10deity_data"
n54:	.asciz	"_Z10free_fightP9char_data"
n55:	.asciz	"_Z10free_helpsv"
n56:	.asciz	"_Z10free_morphP10morph_data"
n57:	.asciz	"_Z10free_planeP10plane_data"
n58:	.asciz	"_Z10free_skillP10skill_type"
n59:	.asciz	"_Z10fwrite_objP9char_dataP8obj_dataP9__sFILE64isb"
n60:	.asciz	"_Z10get_exflagPKc"
n61:	.asciz	"_Z10get_mpflagPKc"
n62:	.asciz	"_Z10get_pcflagPKc"
n63:	.asciz	"_Z10get_sclassPKc"
n64:	.asciz	"_Z10get_spowerPKc"
n65:	.asciz	"_Z10group_gainP9char_dataS0_"
n66:	.asciz	"_Z10hash_statsv"
n67:	.asciz	"_Z10hide_tildePc"
n68:	.asciz	"_Z10init_chessv"
n69:	.asciz	"_Z10isDownpouri"
n70:	.asciz	"_Z10isFreezingi"
n71:	.asciz	"_Z10isVeryColdi"
n72:	.asciz	"_Z10is_fearingP9char_dataS0_"
n73:	.asciz	"_Z10is_huntingP9char_dataS0_"
n74:	.asciz	"_Z10is_note_toP9char_dataP9note_data"
n75:	.asciz	"_Z10is_trappedP8obj_data"
n76:	.asciz	"_Z10legal_lootP9char_dataS0_"
n77:	.asciz	"_Z10load_clansv"
n78:	.asciz	"_Z10load_deityv"
n79:	.asciz	"_Z10load_flagsP9area_dataP9__sFILE64"
n80:	.asciz	"_Z10load_helpsP9__sFILE64"
n81:	.asciz	"_Z10load_racesv"
n82:	.asciz	"_Z10load_roomsP9area_dataP9__sFILE64"
n83:	.asciz	"_Z10load_shopsP9__sFILE64"
n84:	.asciz	"_Z10load_worldv"
n85:	.asciz	"_Z10log_printfPKcz"
n86:	.asciz	"_Z10mail_countP9char_data"
n87:	.asciz	"_Z10make_bloodP9char_data"
n88:	.asciz	"_Z10make_resetciiii"
n89:	.asciz	"_Z10mssp_replyP15descriptor_dataPKcS2_z"
n90:	.asciz	"_Z10mudstrlcatPcPKcj"
n91:	.asciz	"_Z10mudstrlcpyPcPKcj"
n92:	.asciz	"_Z10obj_to_objP8obj_dataS0_"
n93:	.asciz	"_Z10obj_updatev"
n94:	.asciz	"_Z10pullorpushP9char_dataP8obj_datab"
n95:	.asciz	"_Z10quick_linkPKc"
n96:	.asciz	"_Z10read_boardP9__sFILE64"
n97:	.asciz	"_Z10read_planeP9__sFILE64"
n98:	.asciz	"_Z10remove_objP9char_dataib"
n99:	.asciz	"_Z10remove_tagP9char_dataPci"
n100:	.asciz	"_Z10reset_areaP9area_data"
n101:	.asciz	"_Z10reset_roomP15room_index_data"
n102:	.asciz	"_Z10ris_damageP9char_datasi"
n103:	.asciz	"_Z10save_deityP10deity_data"
n104:	.asciz	"_Z10save_racesv"
n105:	.asciz	"_Z10save_worldv"
n106:	.asciz	"_Z10sec_to_hmslPc"
n107:	.asciz	"_Z10send_timerP8timersetP9char_data"
n108:	.asciz	"_Z10show_tildePKc"
n109:	.asciz	"_Z10show_titleP15descriptor_data"
n110:	.asciz	"_Z10show_vnumsP9char_dataiibbPKcS2_"
n111:	.asciz	"_Z10showaffectP9char_dataP11affect_data"
n112:	.asciz	"_Z10skill_compPP10skill_typeS1_"
n113:	.asciz	"_Z10sort_exitsP15room_index_data"
n114:	.asciz	"_Z10stamp_timev"
n115:	.asciz	"_Z10start_fallv"
n116:	.asciz	"_Z10str_prefixPKcS0_"
n117:	.asciz	"_Z10str_suffixPKcS0_"
n118:	.asciz	"_Z10tail_chainv"
n119:	.asciz	"_Z10teleportchP9char_dataP15room_index_datab"
n120:	.asciz	"_Z10to_channelPKciS0_s"
n121:	.asciz	"_Z10trvch_nextP8trv_data"
n122:	.asciz	"_Z10update_posP9char_data"
n123:	.asciz	"_Z10valid_edgeP9exit_data"
n124:	.asciz	"_Z10warn_progsP9char_dataiiP9area_dataP14renumber_areas"
n125:	.asciz	"_Z10write_hintv"
n126:	.asciz	"_Z10xp_computeP9char_dataS0_"
n127:	.asciz	"_Z11SHA256_InitP13SHA256Context"
n128:	.asciz	"_Z11add_commandP8cmd_type"
n129:	.asciz	"_Z11affect_joinP9char_dataP11affect_data"
n130:	.asciz	"_Z11aggr_updatev"
n131:	.asciz	"_Z11append_fileP9char_dataPKcS2_"
n132:	.asciz	"_Z11area_updatev"
n133:	.asciz	"_Z11aris_affectP9char_dataP11affect_data"
n134:	.asciz	"_Z11assign_areaP9char_data"
n135:	.asciz	"_Z11auth_updatev"
n136:	.asciz	"_Z11bfs_dequeuev"
n137:	.asciz	"_Z11bfs_enqueueP15room_index_datac"
n138:	.asciz	"_Z11calc_seasonv"
n139:	.asciz	"_Z11can_carry_nP9char_data"
n140:	.asciz	"_Z11can_carry_wP9char_data"
n141:	.asciz	"_Z11can_mmodifyP9char_dataS0_"
n142:	.asciz	"_Z11can_omodifyP9char_dataP8obj_data"
n143:	.asciz	"_Z11can_outcastP9clan_dataP9char_dataS2_"
n144:	.asciz	"_Z11can_rmodifyP9char_dataP15room_index_data"
n145:	.asciz	"_Z11can_see_objP9char_dataP8obj_data"
n146:	.asciz	"_Z11char_updatev"
n147:	.asciz	"_Z11check_blindP9char_data"
n148:	.asciz	"_Z11check_dodgeP9char_dataS0_"
n149:	.asciz	"_Z11check_parryP9char_dataS0_"
n150:	.asciz	"_Z11check_skillP9char_dataPcS1_"
n151:	.asciz	"_Z11check_vnumsP9char_dataP9area_dataP14renumber_areas"
n152:	.asciz	"_Z11clear_coordii"
n153:	.asciz	"_Z11color_alignPKcii"
n154:	.asciz	"_Z11compressEndP15descriptor_data"
n155:	.asciz	"_Z11copy_bufferP9char_data"
n156:	.asciz	"_Z11count_linesPc"
n157:	.asciz	"_Z11create_areav"
n158:	.asciz	"_Z11delete_roomP15room_index_data"
n159:	.asciz	"_Z11dispose_banP8ban_datai"
n160:	.asciz	"_Z11do_compressP9char_dataPKc"
n161:	.asciz	"_Z11do_mprmflagP9char_dataPKc"
n162:	.asciz	"_Z11echo_to_allsPKcs"
n163:	.asciz	"_Z11economy_hasP9area_datai"
n164:	.asciz	"_Z11edit_bufferP9char_dataPc"
n165:	.asciz	"_Z11encumbranceP9char_datas"
n166:	.asciz	"_Z11extract_objP8obj_data"
n167:	.asciz	"_Z11figure_typePKc"
n168:	.asciz	"_Z11find_keeperP9char_data"
n169:	.asciz	"_Z11find_oresetP15room_index_dataPKc"
n170:	.asciz	"_Z11find_socialPKc"
n171:	.asciz	"_Z11find_tongueP9char_dataPKcb"
n172:	.asciz	"_Z11find_weaponP9char_dataPKcb"
n173:	.asciz	"_Z11flag_stringiPKPKc"
n174:	.asciz	"_Z11fread_deityP10deity_dataP9__sFILE64"
n175:	.asciz	"_Z11fread_morphP9__sFILE64"
n176:	.asciz	"_Z11fread_skillP9__sFILE64"
n177:	.asciz	"_Z11free_boardsv"
n178:	.asciz	"_Z11free_morphsv"
n179:	.asciz	"_Z11free_skillsv"
n180:	.asciz	"_Z11free_socialP11social_type"
n181:	.asciz	"_Z11fwrite_charP9char_dataP9__sFILE64"
n182:	.asciz	"_Z11getHumidityP11WeatherCell"
n183:	.asciz	"_Z11getPressureP11WeatherCell"
n184:	.asciz	"_Z11get_actflagPKc"
n185:	.asciz	"_Z11get_climatePc"
n186:	.asciz	"_Z11get_cmdflagPKc"
n187:	.asciz	"_Z11get_councilPKc"
n188:	.asciz	"_Z11get_eq_charP9char_datai"
n189:	.asciz	"_Z11get_exit_toP15room_index_datasi"
n190:	.asciz	"_Z11get_holidayss"
n191:	.asciz	"_Z11get_langnumPKc"
n192:	.asciz	"_Z11get_npc_sexPKc"
n193:	.asciz	"_Z11get_objtypeP9char_datas"
n194:	.asciz	"_Z11get_pc_racePKc"
n195:	.asciz	"_Z11get_plrflagPKc"
n196:	.asciz	"_Z11get_risflagPKc"
n197:	.asciz	"_Z11get_sactionPKc"
n198:	.asciz	"_Z11get_sdamagePKc"
n199:	.asciz	"_Z11get_secflagPKc"
n200:	.asciz	"_Z11get_stargetPKc"
n201:	.asciz	"_Z11get_wearlocPKc"
n202:	.asciz	"_Z11herb_lookupPKc"
n203:	.asciz	"_Z11hint_updatev"
n204:	.asciz	"_Z11hunt_victimP9char_data"
n205:	.asciz	"_Z11init_socketi"
n206:	.asciz	"_Z11interpolateiii"
n207:	.asciz	"_Z11isCalmWindEi"
n208:	.asciz	"_Z11isCalmWindNi"
n209:	.asciz	"_Z11isCalmWindSi"
n210:	.asciz	"_Z11isCalmWindWi"
n211:	.asciz	"_Z11isDrizzlingi"
n212:	.asciz	"_Z11isTemperatei"
n213:	.asciz	"_Z11is_affectedP9char_datai"
n214:	.asciz	"_Z11is_ignoringP9char_dataS0_"
n215:	.asciz	"_Z11liq_can_mixP8obj_dataS0_"
n216:	.asciz	"_Z11load_authorP9area_dataP9__sFILE64"
n217:	.asciz	"_Z11load_boardsv"
n218:	.asciz	"_Z11load_mobileP9__sFILE64"
n219:	.asciz	"_Z11load_morphsv"
n220:	.asciz	"_Z11load_planesv"
n221:	.asciz	"_Z11load_rangesP9area_dataP9__sFILE64"
n222:	.asciz	"_Z11load_resetsP9area_dataP9__sFILE64"
n223:	.asciz	"_Z11make_corpseP9char_dataS0_"
n224:	.asciz	"_Z11make_mobileiiPKc"
n225:	.asciz	"_Z11make_objectiiPKc"
n226:	.asciz	"_Z11make_scrapsP8obj_data"
n227:	.asciz	"_Z11mini_c_timeli"
n228:	.asciz	"_Z11mob_act_addP9char_data"
n229:	.asciz	"_Z11mprog_sevalPKcS0_S0_P9char_data"
n230:	.asciz	"_Z11mprog_vevaliPciP9char_data"
n231:	.asciz	"_Z11ms_find_objP9char_data"
n232:	.asciz	"_Z11name_expandP9char_data"
n233:	.asciz	"_Z11note_attachP9char_data"
n234:	.asciz	"_Z11note_removeP10board_dataP9note_data"
n235:	.asciz	"_Z11number_bitsi"
n236:	.asciz	"_Z11number_doorv"
n237:	.asciz	"_Z11obj_act_addP8obj_data"
n238:	.asciz	"_Z11obj_hitrollP8obj_data"
n239:	.asciz	"_Z11obj_to_charP8obj_dataP9char_data"
n240:	.asciz	"_Z11obj_to_roomP8obj_dataP15room_index_data"
n241:	.asciz	"_Z11process_dnsP15descriptor_data"
n242:	.asciz	"_Z11race_stringi"
n243:	.asciz	"_Z11random_ansis"
n244:	.asciz	"_Z11resolve_dnsP15descriptor_datal"
n245:	.asciz	"_Z11room_affectP15room_index_dataP11affect_datab"
n246:	.asciz	"_Z11room_is_dndP9char_dataP15room_index_data"
n247:	.asciz	"_Z11save_mobileP9__sFILE64P9char_data"
n248:	.asciz	"_Z11save_morphsv"
n249:	.asciz	"_Z11save_planesv"
n250:	.asciz	"_Z11saves_wandsiP9char_data"
n251:	.asciz	"_Z11set_cur_objP8obj_data"
n252:	.asciz	"_Z11show_colorsP9char_data"
n253:	.asciz	"_Z11slot_lookupi"
n254:	.asciz	"_Z11smash_tildePKc"
n255:	.asciz	"_Z11smash_tildePc"
n256:	.asciz	"_Z11smush_tildePc"
n257:	.asciz	"_Z11spec_lookupPKc"
n258:	.asciz	"_Z11spring_trapP9char_dataP8obj_data"
n259:	.asciz	"_Z11start_timerP7timeval"
n260:	.asciz	"_Z11stop_hatingP9char_data"
n261:	.asciz	"_Z11stop_idlingP9char_data"
n262:	.asciz	"_Z11tele_updatev"
n263:	.asciz	"_Z11time_updatev"
n264:	.asciz	"_Z11trv_disposePP8trv_data"
n265:	.asciz	"_Z11trvch_wnextP9trv_world"
n266:	.asciz	"_Z11trvobj_nextP8trv_data"
n267:	.asciz	"_Z11unmorph_allP10morph_data"
n268:	.asciz	"_Z11update_arisP9char_data"
n269:	.asciz	"_Z11update_timeP2tm"
n270:	.asciz	"_Z11valid_watchPc"
n271:	.asciz	"_Z11wipe_resetsP15room_index_data"
n272:	.asciz	"_Z11write_boardP10board_data"
n273:	.asciz	"_Z12DecreaseTempP11WeatherCelli"
n274:	.asciz	"_Z12IncreaseTempP11WeatherCelli"
n275:	.asciz	"_Z12SHA256_FinalPhP13SHA256Context"
n276:	.asciz	"_Z12add_followerP9char_dataS0_"
n277:	.asciz	"_Z12add_loginmsgPcsS_"
n278:	.asciz	"_Z12adjust_favorP9char_dataii"
n279:	.asciz	"_Z12affect_stripP9char_datai"
n280:	.asciz	"_Z12appraise_allP9char_dataS0_PKc"
n281:	.asciz	"_Z12can_drop_objP9char_dataP8obj_data"
n282:	.asciz	"_Z12caught_alarmi"
n283:	.asciz	"_Z12char_to_roomP9char_dataP15room_index_data"
n284:	.asciz	"_Z12check_expireP8ban_data"
n285:	.asciz	"_Z12check_killerP9char_dataS0_"
n286:	.asciz	"_Z12check_planesP10plane_data"
n287:	.asciz	"_Z12check_socialP9char_dataPKcS2_"
n288:	.asciz	"_Z12check_switchP9char_datab"
n289:	.asciz	"_Z12check_tumbleP9char_dataS0_"
n290:	.asciz	"_Z12class_stringi"
n291:	.asciz	"_Z12clean_resetsP15room_index_data"
n292:	.asciz	"_Z12clear_vroomsv"
n293:	.asciz	"_Z12clone_objectP8obj_data"
n294:	.asciz	"_Z12close_socketP15descriptor_datab"
n295:	.asciz	"_Z12color_strlenPKc"
n296:	.asciz	"_Z12create_moneyi"
n297:	.asciz	"_Z12create_whogrP9char_data"
n298:	.asciz	"_Z12delete_resetP10reset_data"
n299:	.asciz	"_Z12delete_vdataP13variable_data"
n300:	.asciz	"_Z12die_followerP9char_data"
n301:	.asciz	"_Z12display_newsP9char_dataP9news_dataP9news_type"
n302:	.asciz	"_Z12drunk_speechPKcP9char_data"
n303:	.asciz	"_Z12echo_to_roomsP15room_index_dataPKc"
n304:	.asciz	"_Z12ext_has_bitsP18extended_bitvectorS0_"
n305:	.asciz	"_Z12ext_is_emptyP18extended_bitvector"
n306:	.asciz	"_Z12ext_set_bitsP18extended_bitvectorS0_"
n307:	.asciz	"_Z12extract_charP9char_datab"
n308:	.asciz	"_Z12extract_exitP15room_index_dataP9exit_data"
n309:	.asciz	"_Z12find_abilityP9char_dataPKcb"
n310:	.asciz	"_Z12find_commandPc"
n311:	.asciz	"_Z12find_old_ageP9char_data"
n312:	.asciz	"_Z12flush_bufferP15descriptor_datab"
n313:	.asciz	"_Z12fread_letterP9__sFILE64"
n314:	.asciz	"_Z12fread_liquidP9__sFILE64"
n315:	.asciz	"_Z12fread_mobileP9__sFILE64"
n316:	.asciz	"_Z12fread_numberP9__sFILE64"
n317:	.asciz	"_Z12fread_socialP9__sFILE64"
n318:	.asciz	"_Z12fread_stringP9__sFILE64"
n319:	.asciz	"_Z12fread_to_eolP9__sFILE64"
n320:	.asciz	"_Z12free_commandP8cmd_type"
n321:	.asciz	"_Z12free_deitiesv"
n322:	.asciz	"_Z12free_holidayP12holiday_data"
n323:	.asciz	"_Z12free_reserveP12reserve_data"
n324:	.asciz	"_Z12free_socialsv"
n325:	.asciz	"_Z12free_tonguesv"
n326:	.asciz	"_Z12fwrite_langsv"
n327:	.asciz	"_Z12fwrite_morphP9__sFILE64P10morph_data"
n328:	.asciz	"_Z12fwrite_skillP9__sFILE64P10skill_type"
n329:	.asciz	"_Z12get_area_objP14obj_index_data"
n330:	.asciz	"_Z12get_areaflagPKc"
n331:	.asciz	"_Z12get_curr_chaP9char_data"
n332:	.asciz	"_Z12get_curr_conP9char_data"
n333:	.asciz	"_Z12get_curr_dexP9char_data"
n334:	.asciz	"_Z12get_curr_intP9char_data"
n335:	.asciz	"_Z12get_curr_lckP9char_data"
n336:	.asciz	"_Z12get_curr_strP9char_data"
n337:	.asciz	"_Z12get_curr_wisP9char_data"
n338:	.asciz	"_Z12get_exit_diriPiS_ii"
n339:	.asciz	"_Z12get_exit_numP15room_index_datas"
n340:	.asciz	"_Z12get_exp_baseP9char_data"
n341:	.asciz	"_Z12get_langflagPKc"
n342:	.asciz	"_Z12get_liq_vnumi"
n343:	.asciz	"_Z12get_npc_racePKc"
n344:	.asciz	"_Z12get_obj_hereP9char_dataPKc"
n345:	.asciz	"_Z12get_obj_listP9char_dataPcP8obj_data"
n346:	.asciz	"_Z12get_obj_roomP14obj_index_dataP15room_index_data"
n347:	.asciz	"_Z12get_obj_typeP14obj_index_data"
n348:	.asciz	"_Z12get_obj_vnumP9char_datai"
n349:	.asciz	"_Z12get_obj_wearP9char_dataPKc"
n350:	.asciz	"_Z12get_partflagPKc"
n351:	.asciz	"_Z12get_pc_classPKc"
n352:	.asciz	"_Z12get_pulltypePKc"
n353:	.asciz	"_Z12get_saveflagPKc"
n354:	.asciz	"_Z12get_timerptrP9char_datas"
n355:	.asciz	"_Z12get_trapflagPKc"
n356:	.asciz	"_Z12get_trigflagPKc"
n357:	.asciz	"_Z12group_objectP8obj_dataS0_"
n358:	.asciz	"_Z12in_dns_cachePc"
n359:	.asciz	"_Z12indent_whogrP9char_dataP7whogr_si"
n360:	.asciz	"_Z12isGustyWindEi"
n361:	.asciz	"_Z12isGustyWindNi"
n362:	.asciz	"_Z12isGustyWindSi"
n363:	.asciz	"_Z12isGustyWindWi"
n364:	.asciz	"_Z12isReallyColdi"
n365:	.asciz	"_Z12isWindyWindEi"
n366:	.asciz	"_Z12isWindyWindNi"
n367:	.asciz	"_Z12isWindyWindSi"
n368:	.asciz	"_Z12isWindyWindWi"
n369:	.asciz	"_Z12is_valid_tagPKc"
n370:	.asciz	"_Z12load_banlistv"
n371:	.asciz	"_Z12load_classesv"
n372:	.asciz	"_Z12load_climateP9area_dataP9__sFILE64"
n373:	.asciz	"_Z12load_corpsesv"
n374:	.asciz	"_Z12load_creditsP9area_dataP9__sFILE64"
n375:	.asciz	"_Z12load_economyP9area_dataP9__sFILE64"
n376:	.asciz	"_Z12load_liquidsv"
n377:	.asciz	"_Z12load_mobilesP9area_dataP9__sFILE64"
n378:	.asciz	"_Z12load_objectsP9area_dataP9__sFILE64"
n379:	.asciz	"_Z12load_repairsP9__sFILE64"
n380:	.asciz	"_Z12load_socialsv"
n381:	.asciz	"_Z12load_tonguesv"
n382:	.asciz	"_Z12load_versionP9area_dataP9__sFILE64"
n383:	.asciz	"_Z12make_wizlistv"
n384:	.asciz	"_Z12map_to_roomsP9char_dataP14map_index_data"
n385:	.asciz	"_Z12modify_skillP9char_dataiib"
n386:	.asciz	"_Z12mprog_driverPKcP9char_dataS2_P8obj_dataPKvb"
n387:	.asciz	"_Z12number_fuzzyi"
n388:	.asciz	"_Z12number_rangeii"
n389:	.asciz	"_Z12obj_from_objP8obj_data"
n390:	.asciz	"_Z12off_shld_lvlP9char_dataS0_"
n391:	.asciz	"_Z12one_argumentPKcPc"
n392:	.asciz	"_Z12one_argumentPcS_"
n393:	.asciz	"_Z12pager_outputP15descriptor_data"
n394:	.asciz	"_Z12pager_printfP9char_dataPKcz"
n395:	.asciz	"_Z12plane_lookupPKc"
n396:	.asciz	"_Z12player_countv"
n397:	.asciz	"_Z12read_projectP9__sFILE64"
n398:	.asciz	"_Z12reboot_checkl"
n399:	.asciz	"_Z12remove_timerP9char_datas"
n400:	.asciz	"_Z12reset_colorsP9char_data"
n401:	.asciz	"_Z12room_act_addP15room_index_data"
n402:	.asciz	"_Z12room_enqueueP15room_index_data"
n403:	.asciz	"_Z12room_is_darkP15room_index_data"
n404:	.asciz	"_Z12save_banlistv"
n405:	.asciz	"_Z12save_classesv"
n406:	.asciz	"_Z12save_councilP12council_data"
n407:	.asciz	"_Z12save_liquidsv"
n408:	.asciz	"_Z12save_socialsv"
n409:	.asciz	"_Z12save_sysdata11system_data"
n410:	.asciz	"_Z12saves_breathiP9char_data"
n411:	.asciz	"_Z12send_to_charPKcP9char_data"
n412:	.asciz	"_Z12separate_objP8obj_data"
n413:	.asciz	"_Z12set_cur_charP9char_data"
n414:	.asciz	"_Z12set_fightingP9char_dataS0_"
n415:	.asciz	"_Z12set_supermobP8obj_data"
n416:	.asciz	"_Z12sha256_cryptPKc"
n417:	.asciz	"_Z12shutdown_mudPKc"
n418:	.asciz	"_Z12skill_lookupPKc"
n419:	.asciz	"_Z12spell_affectiiP9char_dataPv"
n420:	.asciz	"_Z12spell_attackiiP9char_dataPv"
n421:	.asciz	"_Z12sprint_resetP10reset_dataPs"
n422:	.asciz	"_Z12start_hatingP9char_dataS0_"
n423:	.asciz	"_Z12start_springv"
n424:	.asciz	"_Z12start_summerv"
n425:	.asciz	"_Z12start_winterv"
n426:	.asciz	"_Z12stop_editingP9char_data"
n427:	.asciz	"_Z12stop_fearingP9char_data"
n428:	.asciz	"_Z12stop_huntingP9char_data"
n429:	.asciz	"_Z12talk_auctionPc"
n430:	.asciz	"_Z12talk_channelP9char_dataPKciS2_"
n431:	.asciz	"_Z12times_killedP9char_dataS0_"
n432:	.asciz	"_Z12trvch_createP9char_data8trv_type"
n433:	.asciz	"_Z12trvobj_wnextP9trv_world"
n434:	.asciz	"_Z12tzone_lookupPKc"
n435:	.asciz	"_Z12unequip_charP9char_dataP8obj_data"
n436:	.asciz	"_Z12warn_in_progP9char_dataiiPKciP13mob_prog_dataP14renumber_areas"
n437:	.asciz	"_Z12who_fightingP9char_data"
n438:	.asciz	"_Z13DecreaseWindXP11WeatherCelli"
n439:	.asciz	"_Z13DecreaseWindYP11WeatherCelli"
n440:	.asciz	"_Z13IncreaseWindXP11WeatherCelli"
n441:	.asciz	"_Z13IncreaseWindYP11WeatherCelli"
n442:	.asciz	"_Z13SHA256_UpdateP13SHA256ContextPKhj"
n443:	.asciz	"_Z13UpdateWeatherv"
n444:	.asciz	"_Z13add_obj_resetP15room_index_datacP8obj_dataii"
n445:	.asciz	"_Z13advance_levelP9char_data"
n446:	.asciz	"_Z13affect_modifyP9char_dataP11affect_datab"
n447:	.asciz	"_Z13affect_removeP9char_dataP11affect_data"
n448:	.asciz	"_Z13align_computeP9char_dataS0_"
n449:	.asciz	"_Z13boost_economyP9area_datai"
n450:	.asciz	"_Z13calculate_ageP9char_data"
n451:	.asciz	"_Z13can_use_skillP9char_dataii"
n452:	.asciz	"_Z13chance_attribP9char_datass"
n453:	.asciz	"_Z13check_abilityP9char_dataPcS1_"
n454:	.asciz	"_Z13check_playingP15descriptor_dataPKcb"
n455:	.asciz	"_Z13circle_followP9char_dataS0_"
n456:	.asciz	"_Z13compressStartP15descriptor_data"
n457:	.asciz	"_Z13create_mobileP14mob_index_data"
n458:	.asciz	"_Z13create_objectP14obj_index_datai"
n459:	.asciz	"_Z13de_equip_charP9char_data"
n460:	.asciz	"_Z13decorate_roomP15room_index_data"
n461:	.asciz	"_Z13do_morph_charP9char_dataP10morph_data"
n462:	.asciz	"_Z13draw_room_mapP9char_dataPKc"
n463:	.asciz	"_Z13drunk_randomsP9char_data"
n464:	.asciz	"_Z13ext_same_bitsP18extended_bitvectorS0_"
n465:	.asciz	"_Z13extract_timerP9char_dataP10timer_data"
n466:	.asciz	"_Z13find_locationP9char_dataPKc"
n467:	.asciz	"_Z13fread_commandP9__sFILE64"
n468:	.asciz	"_Z13fread_commentP9char_dataP9__sFILE64"
n469:	.asciz	"_Z13fread_councilP12council_dataP9__sFILE64"
n470:	.asciz	"_Z13fread_mixtureP9__sFILE64"
n471:	.asciz	"_Z13fread_sysdataP11system_dataP9__sFILE64"
n472:	.asciz	"_Z13free_commandsv"
n473:	.asciz	"_Z13free_councilsv"
n474:	.asciz	"_Z13free_holidaysv"
n475:	.asciz	"_Z13free_one_clanP9clan_data"
n476:	.asciz	"_Z13free_projectsv"
n477:	.asciz	"_Z13free_specfunsv"
n478:	.asciz	"_Z13fwrite_mobileP9__sFILE64P9char_data"
n479:	.asciz	"_Z13generate_exitP15room_index_dataPP9exit_data"
n480:	.asciz	"_Z13getCloudCoverP11WeatherCell"
n481:	.asciz	"_Z13get_char_roomP9char_dataPKc"
n482:	.asciz	"_Z13get_ed_numberP8obj_datai"
n483:	.asciz	"_Z13get_exp_worthP9char_data"
n484:	.asciz	"_Z13get_map_indexi"
n485:	.asciz	"_Z13get_mob_indexi"
n486:	.asciz	"_Z13get_npc_classPKc"
n487:	.asciz	"_Z13get_obj_carryP9char_dataPKc"
n488:	.asciz	"_Z13get_obj_indexi"
n489:	.asciz	"_Z13get_obj_worldP9char_dataPKc"
n490:	.asciz	"_Z13get_skilltypei"
n491:	.asciz	"_Z13in_hard_rangeP9char_dataP9area_data"
n492:	.asciz	"_Z13in_hash_tablePKc"
n493:	.asciz	"_Z13in_soft_rangeP9char_dataP9area_data"
n494:	.asciz	"_Z13init_supermobv"
n495:	.asciz	"_Z13isBreezyWindEi"
n496:	.asciz	"_Z13isBreezyWindNi"
n497:	.asciz	"_Z13isBreezyWindSi"
n498:	.asciz	"_Z13isBreezyWindWi"
n499:	.asciz	"_Z13isLowPressurei"
n500:	.asciz	"_Z13is_legal_killP9char_dataS0_"
n501:	.asciz	"_Z13is_same_groupP9char_dataS0_"
n502:	.asciz	"_Z13load_char_objP15descriptor_dataPcbb"
n503:	.asciz	"_Z13load_commandsv"
n504:	.asciz	"_Z13load_councilsv"
n505:	.asciz	"_Z13load_holidaysv"
n506:	.asciz	"_Z13load_imm_hostv"
n507:	.asciz	"_Z13load_loginmsgv"
n508:	.asciz	"_Z13load_mixturesv"
n509:	.asciz	"_Z13load_neighborP9area_dataP9__sFILE64"
n510:	.asciz	"_Z13load_projectsv"
n511:	.asciz	"_Z13load_reservedv"
n512:	.asciz	"_Z13load_resetmsgP9area_dataP9__sFILE64"
n513:	.asciz	"_Z13load_specfunsv"
n514:	.asciz	"_Z13load_specialsP9__sFILE64"
n515:	.asciz	"_Z13load_timedatav"
n516:	.asciz	"_Z13lower_economyP9area_datai"
n517:	.asciz	"_Z13make_variableciPc"
n518:	.asciz	"_Z13mobile_updatev"
n519:	.asciz	"_Z13news_cmd_hookP9char_dataPcS1_"
n520:	.asciz	"_Z13nifty_is_namePKcS0_"
n521:	.asciz	"_Z13obj_extractedP8obj_data"
n522:	.asciz	"_Z13obj_from_charP8obj_data"
n523:	.asciz	"_Z13obj_from_roomP8obj_data"
n524:	.asciz	"_Z13old_fold_areaP9area_dataPcb"
n525:	.asciz	"_Z13one_argument2PKcPc"
n526:	.asciz	"_Z13print_compassP9char_data"
n527:	.asciz	"_Z13ranged_attackP9char_dataPKcP8obj_dataS4_ss"
n528:	.asciz	"_Z13re_equip_charP9char_data"
n529:	.asciz	"_Z13read_from_dnsiPc"
n530:	.asciz	"_Z13read_obj_filePcS_"
n531:	.asciz	"_Z13reformat_descPc"
n532:	.asciz	"_Z13remove_portalP8obj_data"
n533:	.asciz	"_Z13remove_rosterP9clan_dataPKc"
n534:	.asciz	"_Z13renumber_areaP9char_dataP9area_dataP14renumber_areasbb"
n535:	.asciz	"_Z13renumber_newsv"
n536:	.asciz	"_Z13rset_supermobP15room_index_data"
n537:	.asciz	"_Z13save_char_objP9char_data"
n538:	.asciz	"_Z13save_commandsv"
n539:	.asciz	"_Z13save_holidaysv"
n540:	.asciz	"_Z13save_loginmsgv"
n541:	.asciz	"_Z13save_mixturesv"
n542:	.asciz	"_Z13save_reservedv"
n543:	.asciz	"_Z13save_timedatav"
n544:	.asciz	"_Z13season_updatev"
n545:	.asciz	"_Z13send_to_pagerPKcP9char_data"
n546:	.asciz	"_Z13simple_damageP9char_dataS0_ii"
n547:	.asciz	"_Z13sort_reservedP12reserve_data"
n548:	.asciz	"_Z13spell_obj_inviiP9char_dataPv"
n549:	.asciz	"_Z13start_editingP9char_dataPKc"
n550:	.asciz	"_Z13start_fearingP9char_dataS0_"
n551:	.asciz	"_Z13start_huntingP9char_dataS0_"
n552:	.asciz	"_Z13stop_fightingP9char_datab"
n553:	.asciz	"_Z13stop_followerP9char_data"
n554:	.asciz	"_Z13transfer_charP9char_dataS0_P15room_index_data"
n555:	.asciz	"_Z13trvobj_createP8obj_data8trv_type"
n556:	.asciz	"_Z13unlink_socialP11social_type"
n557:	.asciz	"_Z13update_rosterP9char_data"
n558:	.asciz	"_Z13update_timersv"
n559:	.asciz	"_Z13update_userecP7timevalP8timerset"
n560:	.asciz	"_Z13write_corpsesP9char_dataPKcP8obj_data"
n561:	.asciz	"_Z14DecreaseEnergyP11WeatherCelli"
n562:	.asciz	"_Z14DecreasePrecipP11WeatherCelli"
n563:	.asciz	"_Z14DelOExtraProtoP14obj_index_dataPKc"
n564:	.asciz	"_Z14IncreaseEnergyP11WeatherCelli"
n565:	.asciz	"_Z14IncreasePrecipP11WeatherCelli"
n566:	.asciz	"_Z14RandomizeCellsv"
n567:	.asciz	"_Z14SetOExtraProtoP14obj_index_dataPKc"
n568:	.asciz	"_Z14WeatherMessagePKcii"
n569:	.asciz	"_Z14add_to_wizlistPci"
n570:	.asciz	"_Z14affect_to_charP9char_dataP11affect_data"
n571:	.asciz	"_Z14append_to_filePKcS0_"
n572:	.asciz	"_Z14auction_updatev"
n573:	.asciz	"_Z14can_learn_langP9char_datai"
n574:	.asciz	"_Z14can_take_protoP9char_data"
n575:	.asciz	"_Z14char_from_roomP9char_data"
n576:	.asciz	"_Z14check_attackerP9char_dataS0_"
n577:	.asciz	"_Z14check_bad_desci"
n578:	.asciz	"_Z14check_for_trapP9char_dataP8obj_datai"
n579:	.asciz	"_Z14check_loginmsgP9char_data"
n580:	.asciz	"_Z14check_switchesb"
n581:	.asciz	"_Z14cleanup_memoryv"
n582:	.asciz	"_Z14comment_removeP9char_dataP9note_data"
n583:	.asciz	"_Z14count_obj_listP14obj_index_dataP8obj_data"
n584:	.asciz	"_Z14default_promptP9char_data"
n585:	.asciz	"_Z14delete_projectP12project_data"
n586:	.asciz	"_Z14dispel_castingP11affect_dataP9char_dataS2_ib"
n587:	.asciz	"_Z14display_promptP15descriptor_data"
n588:	.asciz	"_Z14displaymixtureP9char_dataP12mixture_list"
n589:	.asciz	"_Z14ext_clear_bitsP18extended_bitvector"
n590:	.asciz	"_Z14extra_bit_nameP18extended_bitvector"
n591:	.asciz	"_Z14failed_castingP10skill_typeP9char_dataS2_P8obj_data"
n592:	.asciz	"_Z14fix_area_exitsP9area_data"
n593:	.asciz	"_Z14fread_imm_hostP9__sFILE64P13immortal_host"
n594:	.asciz	"_Z14fread_loginmsgP9__sFILE64"
n595:	.asciz	"_Z14fread_timedataP9__sFILE64"
n596:	.asciz	"_Z14fread_variableP9char_dataP9__sFILE64"
n597:	.asciz	"_Z14free_mssp_infov"
n598:	.asciz	"_Z14free_teleportsv"
n599:	.asciz	"_Z14free_watchlistv"
n600:	.asciz	"_Z14gain_conditionP9char_dataii"
n601:	.asciz	"_Z14getWeatherCellP9area_data"
n602:	.asciz	"_Z14get_attackflagPKc"
n603:	.asciz	"_Z14get_char_worldP9char_dataPKc"
n604:	.asciz	"_Z14get_hemispherePc"
n605:	.asciz	"_Z14get_morph_vnumi"
n606:	.asciz	"_Z14get_obj_numberP8obj_data"
n607:	.asciz	"_Z14get_obj_weightP8obj_data"
n608:	.asciz	"_Z14get_repaircostP9char_dataP8obj_data"
n609:	.asciz	"_Z14get_room_indexi"
n610:	.asciz	"_Z14hallucinationsP9char_data"
n611:	.asciz	"_Z14immune_castingP10skill_typeP9char_dataS2_P8obj_data"
n612:	.asciz	"_Z14isHighPressurei"
n613:	.asciz	"_Z14isMinorlyHumidi"
n614:	.asciz	"_Z14isPartlyCloudyi"
n615:	.asciz	"_Z14is_name_prefixPKcPc"
n616:	.asciz	"_Z14item_type_nameP8obj_data"
n617:	.asciz	"_Z14knows_languageP9char_dataiS0_"
n618:	.asciz	"_Z14liqobj_can_mixP8obj_dataS0_"
n619:	.asciz	"_Z14load_area_fileP9area_dataPKc"
n620:	.asciz	"_Z14load_buildlistv"
n621:	.asciz	"_Z14load_clan_filePKc"
n622:	.asciz	"_Z14load_mssp_datav"
n623:	.asciz	"_Z14load_obj_filesv"
n624:	.asciz	"_Z14load_race_filePKc"
n625:	.asciz	"_Z14load_watchlistv"
n626:	.asciz	"_Z14locate_targetsP9char_dataPciPS0_PP8obj_data"
n627:	.asciz	"_Z14magic_bit_namei"
n628:	.asciz	"_Z14morph_defaultsP10morph_data"
n629:	.asciz	"_Z14mpsleep_updatev"
n630:	.asciz	"_Z14nanny_get_nameP15descriptor_dataPc"
n631:	.asciz	"_Z14new_descriptori"
n632:	.asciz	"_Z14number_percentv"
n633:	.asciz	"_Z14obj_act_updatev"
n634:	.asciz	"_Z14obj_cast_spelliiP9char_dataS0_P8obj_data"
n635:	.asciz	"_Z14projectile_hitP9char_dataS0_P8obj_dataS2_s"
n636:	.asciz	"_Z14pull_type_namei"
n637:	.asciz	"_Z14repair_one_objP9char_dataS0_P8obj_dataPKciS4_S4_"
n638:	.asciz	"_Z14save_mssp_infov"
n639:	.asciz	"_Z14save_watchlistv"
n640:	.asciz	"_Z14send_mssp_dataP15descriptor_data"
n641:	.asciz	"_Z14send_rip_titleP9char_data"
n642:	.asciz	"_Z14set_bexit_flagP9exit_datai"
n643:	.asciz	"_Z14set_char_colorsP9char_data"
n644:	.asciz	"_Z14show_conditionP9char_dataS0_"
n645:	.asciz	"_Z14show_high_hashi"
n646:	.asciz	"_Z14show_race_lineP9char_dataS0_"
n647:	.asciz	"_Z14skill_functionPKc"
n648:	.asciz	"_Z14spell_functionPKc"
n649:	.asciz	"_Z14subtract_timesP7timevalS0_"
n650:	.asciz	"_Z14trworld_create8trv_type"
n651:	.asciz	"_Z14unlink_commandP8cmd_type"
n652:	.asciz	"_Z14update_handlerv"
n653:	.asciz	"_Z14write_projectsv"
n654:	.asciz	"_Z14write_to_pagerP15descriptor_dataPKcj"
n655:	.asciz	"_Z15add_room_affectP15room_index_dataP9char_databPKc"
n656:	.asciz	"_Z15affect_bit_nameP18extended_bitvector"
n657:	.asciz	"_Z15affect_loc_namei"
n658:	.asciz	"_Z15bfs_clear_queuev"
n659:	.asciz	"_Z15ch_printf_colorP9char_dataPKcz"
n660:	.asciz	"_Z15check_alignmentP9char_data"
n661:	.asciz	"_Z15check_cmd_flagsP9char_dataP8cmd_type"
n662:	.asciz	"_Z15check_reconnectP15descriptor_dataPKcb"
n663:	.asciz	"_Z15clean_obj_queuev"
n664:	.asciz	"_Z15close_all_areasv"
n665:	.asciz	"_Z15create_new_raceiPc"
n666:	.asciz	"_Z15default_fpromptP9char_data"
n667:	.asciz	"_Z15delete_variableP13variable_data"
n668:	.asciz	"_Z15do_unmorph_charP9char_data"
n669:	.asciz	"_Z15ext_flag_stringP18extended_bitvectorPKPKc"
n670:	.asciz	"_Z15ext_remove_bitsP18extended_bitvectorS0_"
n671:	.asciz	"_Z15ext_toggle_bitsP18extended_bitvectorS0_"
n672:	.asciz	"_Z15find_first_stepP15room_index_dataS0_i"
n673:	.asciz	"_Z15find_projectileP9char_datai"
n674:	.asciz	"_Z15fread_bitvectorP9__sFILE64"
n675:	.asciz	"_Z15fread_fuss_areaP9area_dataP9__sFILE64"
n676:	.asciz	"_Z15fread_fuss_exitP9__sFILE64P15room_index_data"
n677:	.asciz	"_Z15fread_fuss_roomP9__sFILE64P9area_data"
n678:	.asciz	"_Z15fread_mssp_infoP9__sFILE64"
n679:	.asciz	"_Z15fread_news_typeP9news_typeP9__sFILE64"
n680:	.asciz	"_Z15free_all_planesv"
n681:	.asciz	"_Z15free_liquiddatav"
n682:	.asciz	"_Z15fwrite_commentsP9char_dataP9__sFILE64"
n683:	.asciz	"_Z15gather_one_listsiiibPi"
n684:	.asciz	"_Z15get_chance_verbP8obj_data"
n685:	.asciz	"_Z15get_defenseflagPKc"
n686:	.asciz	"_Z15get_exit_numberP15room_index_datai"
n687:	.asciz	"_Z15get_extra_descrPKcP16extra_descr_data"
n688:	.asciz	"_Z15hotboot_recoverv"
n689:	.asciz	"_Z15isBlusteryWindEi"
n690:	.asciz	"_Z15isBlusteryWindNi"
n691:	.asciz	"_Z15isBlusteryWindSi"
n692:	.asciz	"_Z15isBlusteryWindWi"
n693:	.asciz	"_Z15isExtremelyColdi"
n694:	.asciz	"_Z15is_name2_prefixPKcS0_"
n695:	.asciz	"_Z15load_class_filePKc"
n696:	.asciz	"_Z15load_deity_filePKc"
n697:	.asciz	"_Z15load_herb_tablev"
n698:	.asciz	"_Z15load_room_resetP15room_index_dataP9__sFILE64"
n699:	.asciz	"_Z15load_systemdataP11system_data"
n700:	.asciz	"_Z15load_weathermapv"
n701:	.asciz	"_Z15log_printf_plusssPKcz"
n702:	.asciz	"_Z15log_string_plusPKcss"
n703:	.asciz	"_Z15make_bloodstainP9char_data"
n704:	.asciz	"_Z15make_char_morphP10morph_data"
n705:	.asciz	"_Z15mprog_file_readP14mob_index_dataPKc"
n706:	.asciz	"_Z15mprog_translatecPcP9char_dataS1_P8obj_dataPKvS1_"
n707:	.asciz	"_Z15nanny_read_motdP15descriptor_dataPKc"
n708:	.asciz	"_Z15new_dam_messageP9char_dataS0_ijP8obj_data"
n709:	.asciz	"_Z15num_rooms_availP9char_data"
n710:	.asciz	"_Z15number_argumentPKcPc"
n711:	.asciz	"_Z15oprog_file_readP14obj_index_dataPKc"
n712:	.asciz	"_Z15personal_lookupP9char_dataPKc"
n713:	.asciz	"_Z15print_bitvectorP18extended_bitvector"
n714:	.asciz	"_Z15process_sortingP9area_data"
n715:	.asciz	"_Z15randomize_exitsP15room_index_datas"
n716:	.asciz	"_Z15room_act_updatev"
n717:	.asciz	"_Z15room_is_privateP15room_index_data"
n718:	.asciz	"_Z15rprog_file_readP15room_index_dataPKc"
n719:	.asciz	"_Z15save_herb_tablev"
n720:	.asciz	"_Z15save_weathermapv"
n721:	.asciz	"_Z15scan_for_victimP9char_dataP9exit_dataPKc"
n722:	.asciz	"_Z15send_ansi_titleP9char_data"
n723:	.asciz	"_Z15send_rip_screenP9char_data"
n724:	.asciz	"_Z15set_pager_colorsP9char_data"
n725:	.asciz	"_Z15set_pager_inputP15descriptor_dataPc"
n726:	.asciz	"_Z15translate_exitsP9char_dataP9area_dataP14renumber_areasb"
n727:	.asciz	"_Z15translate_resetP10reset_dataP14renumber_areas"
n728:	.asciz	"_Z15trworld_disposePP9trv_world"
n729:	.asciz	"_Z15update_calendarv"
n730:	.asciz	"_Z15uphold_supermobPiiPP15room_index_dataP8obj_data"
n731:	.asciz	"_Z15violence_updatev"
n732:	.asciz	"_Z15write_area_listv"
n733:	.asciz	"_Z15write_clan_listv"
n734:	.asciz	"_Z15write_race_filei"
n735:	.asciz	"_Z15write_to_bufferP15descriptor_dataPKcj"
n736:	.asciz	"_Z16DecreaseHumidityP11WeatherCelli"
n737:	.asciz	"_Z16DecreasePressureP11WeatherCelli"
n738:	.asciz	"_Z16ExceedsThresholdiii"
n739:	.asciz	"_Z16IncreaseHumidityP11WeatherCelli"
n740:	.asciz	"_Z16IncreasePressureP11WeatherCelli"
n741:	.asciz	"_Z16check_illegal_pkP9char_dataS0_"
n742:	.asciz	"_Z16check_parse_namePKcb"
n743:	.asciz	"_Z16check_total_bansP15descriptor_data"
n744:	.asciz	"_Z16clean_char_queuev"
n745:	.asciz	"_Z16clean_room_queuev"
n746:	.asciz	"_Z16clear_char_morphP10char_morph"
n747:	.asciz	"_Z16create_new_classiPKc"
n748:	.asciz	"_Z16find_translationiP13renumber_data"
n749:	.asciz	"_Z16fread_flagstringP9__sFILE64"
n750:	.asciz	"_Z16fread_memberlistP9clan_dataP9__sFILE64"
n751:	.asciz	"_Z16fread_morph_dataP9char_dataP9__sFILE64"
n752:	.asciz	"_Z16free_one_councilP12council_data"
n753:	.asciz	"_Z16fwrite_bitvectorP18extended_bitvectorP9__sFILE64"
n754:	.asciz	"_Z16fwrite_fuss_exitP9__sFILE64P9exit_data"
n755:	.asciz	"_Z16fwrite_fuss_roomP9__sFILE64P15room_index_datab"
n756:	.asciz	"_Z16fwrite_variablesP9char_dataP9__sFILE64"
n757:	.asciz	"_Z16get_npc_positionPKc"
n758:	.asciz	"_Z16get_obj_list_revP9char_dataPKcP8obj_data"
n759:	.asciz	"_Z16get_ssave_effectPKc"
n760:	.asciz	"_Z16get_waiting_descP9char_dataPc"
n761:	.asciz	"_Z16isExtremelyHumidi"
n762:	.asciz	"_Z16isGaleForceWindEi"
n763:	.asciz	"_Z16isGaleForceWindNi"
n764:	.asciz	"_Z16isGaleForceWindSi"
n765:	.asciz	"_Z16isGaleForceWindWi"
n766:	.asciz	"_Z16isRainingLightlyi"
n767:	.asciz	"_Z16isSwelteringHeati"
n768:	.asciz	"_Z16is_reserved_namePKc"
n769:	.asciz	"_Z16load_skill_tablev"
n770:	.asciz	"_Z16mprog_do_commandPKcP9char_dataS2_P8obj_dataPKvS2_bb"
n771:	.asciz	"_Z16mprog_do_ifcheckPKcP9char_dataS2_P8obj_dataPKvS2_"
n772:	.asciz	"_Z16mprog_time_checkP9char_dataS0_P8obj_dataPvi"
n773:	.asciz	"_Z16mprog_write_progP9__sFILE64P13mob_prog_data"
n774:	.asciz	"_Z16name_stamp_statsP9char_data"
n775:	.asciz	"_Z16read_char_mobilePc"
n776:	.asciz	"_Z16read_from_bufferP15descriptor_data"
n777:	.asciz	"_Z16release_supermobv"
n778:	.asciz	"_Z16rprog_time_checkP9char_dataS0_P8obj_dataPvi"
n779:	.asciz	"_Z16save_reset_levelP9__sFILE64P10reset_datai"
n780:	.asciz	"_Z16save_skill_tablev"
n781:	.asciz	"_Z16saves_para_petriiP9char_data"
n782:	.asciz	"_Z16send_ascii_titleP9char_data"
n783:	.asciz	"_Z16setup_morph_vnumv"
n784:	.asciz	"_Z16show_colorthemesP9char_data"
n785:	.asciz	"_Z16smash_tilde_copyPKc"
n786:	.asciz	"_Z16sort_skill_tablev"
n787:	.asciz	"_Z16spell_affectchariiP9char_dataPv"
n788:	.asciz	"_Z16spell_create_mobiiP9char_dataPv"
n789:	.asciz	"_Z16spell_create_objiiP9char_dataPv"
n790:	.asciz	"_Z16summon_if_hatingP9char_data"
n791:	.asciz	"_Z16wipe_area_resetsP9area_data"
n792:	.asciz	"_Z16write_boards_txtv"
n793:	.asciz	"_Z16write_class_filei"
n794:	.asciz	"_Z16write_deity_listv"
n795:	.asciz	"_Z17ApplyDeltaChangesv"
n796:	.asciz	"_Z17build_prime_planev"
n797:	.asciz	"_Z17display_news_typeP9char_dataP9news_typePc"
n798:	.asciz	"_Z17do_write_imm_hostv"
n799:	.asciz	"_Z17economize_mobgoldP9char_data"
n800:	.asciz	"_Z17fread_fuss_affectP9__sFILE64PKc"
n801:	.asciz	"_Z17fread_fuss_exdescP9__sFILE64"
n802:	.asciz	"_Z17fread_fuss_mobileP9__sFILE64P9area_data"
n803:	.asciz	"_Z17fread_fuss_objectP9__sFILE64P9area_data"
n804:	.asciz	"_Z17free_all_reservedv"
n805:	.asciz	"_Z17fwrite_memberlistP9__sFILE64P9clan_data"
n806:	.asciz	"_Z17fwrite_morph_dataP9char_dataP9__sFILE64"
n807:	.asciz	"_Z17get_log_by_numberP12project_datai"
n808:	.asciz	"_Z17get_reboot_stringv"
n809:	.asciz	"_Z17isExtremelyCloudyi"
n810:	.asciz	"_Z17isModeratelyHumidi"
n811:	.asciz	"_Z17isRaingingHeavilyi"
n812:	.asciz	"_Z17isRainingSteadilyi"
n813:	.asciz	"_Z17is_valid_filenameP9char_dataPKcS2_"
n814:	.asciz	"_Z17link_news_to_typeP9news_data"
n815:	.asciz	"_Z17load_council_filePKc"
n816:	.asciz	"_Z17mobprog_file_readP14mob_index_dataPKc"
n817:	.asciz	"_Z17mprog_act_triggerPKcP9char_dataS2_P8obj_dataPKv"
n818:	.asciz	"_Z17nanny_get_new_sexP15descriptor_dataPc"
n819:	.asciz	"_Z17nanny_press_enterP15descriptor_dataPKc"
n820:	.asciz	"_Z17objprog_file_readP14obj_index_dataPKc"
n821:	.asciz	"_Z17oprog_act_triggerPKcP8obj_dataP9char_dataS2_PKv"
n822:	.asciz	"_Z17oprog_get_triggerP9char_dataP8obj_data"
n823:	.asciz	"_Z17oprog_sac_triggerP9char_dataP8obj_data"
n824:	.asciz	"_Z17oprog_use_triggerP9char_dataP8obj_dataS0_S2_"
n825:	.asciz	"_Z17oprog_zap_triggerP9char_dataP8obj_data"
n826:	.asciz	"_Z17ranged_got_targetP9char_dataS0_P8obj_dataS2_ssPKcs"
n827:	.asciz	"_Z17remove_area_namesPKcPc"
n828:	.asciz	"_Z17remove_bexit_flagP9exit_datai"
n829:	.asciz	"_Z17rprog_act_triggerPKcP15room_index_dataP9char_dataP8obj_dataPKv"
n830:	.asciz	"_Z17saves_spell_staffiP9char_data"
n831:	.asciz	"_Z17show_char_to_charP9char_dataS0_"
n832:	.asciz	"_Z17show_list_to_charP8obj_dataP9char_databb"
n833:	.asciz	"_Z17skill_comp_bytypePP10skill_typeS1_"
n834:	.asciz	"_Z17sort_area_by_nameP9area_data"
n835:	.asciz	"_Z17spell_area_attackiiP9char_dataPv"
n836:	.asciz	"_Z17toggle_bexit_flagP9exit_datai"
n837:	.asciz	"_Z17translate_objvalsP9char_dataP9area_dataP14renumber_areasb"
n838:	.asciz	"_Z17trworld_obj_checkP8obj_data"
n839:	.asciz	"_Z17update_room_resetP9char_datab"
n840:	.asciz	"_Z17validate_spec_funPKc"
n841:	.asciz	"_Z17write_char_mobileP9char_dataPc"
n842:	.asciz	"_Z17write_watch_filesP9char_dataP8cmd_typePc"
n843:	.asciz	"_Z18ClearWeatherDeltasv"
n844:	.asciz	"_Z18DecreaseCloudCoverP11WeatherCelli"
n845:	.asciz	"_Z18IncreaseCloudCoverP11WeatherCelli"
n846:	.asciz	"_Z18copy_buffer_nohashP9char_data"
n847:	.asciz	"_Z18extract_area_namesPKcPc"
n848:	.asciz	"_Z18find_skill_of_typeP9char_dataPKcbi"
n849:	.asciz	"_Z18format_obj_to_charP8obj_dataP9char_datab"
n850:	.asciz	"_Z18fread_fuss_mobprogP9__sFILE64P13mob_prog_dataP14mob_index_data"
n851:	.asciz	"_Z18fread_fuss_objprogP9__sFILE64P13mob_prog_dataP14obj_index_data"
n852:	.asciz	"_Z18free_prog_actlistsv"
n853:	.asciz	"_Z18free_renumber_dataP13renumber_data"
n854:	.asciz	"_Z18fwrite_area_headerP9__sFILE64P9area_datab"
n855:	.asciz	"_Z18fwrite_fuss_affectP9__sFILE64P11affect_data"
n856:	.asciz	"_Z18fwrite_fuss_exdescP9__sFILE64P16extra_descr_data"
n857:	.asciz	"_Z18fwrite_fuss_mobileP9__sFILE64P14mob_index_datab"
n858:	.asciz	"_Z18fwrite_fuss_objectP9__sFILE64P14obj_index_datab"
n859:	.asciz	"_Z18generate_itemlevelP9area_dataP14obj_index_data"
n860:	.asciz	"_Z18get_obj_resistanceP8obj_data"
n861:	.asciz	"_Z18in_magic_containerP8obj_data"
n862:	.asciz	"_Z18initialize_economyv"
n863:	.asciz	"_Z18isModeratelyCloudyi"
n864:	.asciz	"_Z18learn_from_failureP9char_datai"
n865:	.asciz	"_Z18learn_from_successP9char_datai"
n866:	.asciz	"_Z18make_new_map_indexi"
n867:	.asciz	"_Z18mprog_give_triggerP9char_dataS0_P8obj_data"
n868:	.asciz	"_Z18mprog_hour_triggerP9char_data"
n869:	.asciz	"_Z18mprog_name_to_typePKc"
n870:	.asciz	"_Z18mprog_next_commandPc"
n871:	.asciz	"_Z18mprog_sell_triggerP9char_dataS0_P8obj_data"
n872:	.asciz	"_Z18mprog_tell_triggerPKcP9char_data"
n873:	.asciz	"_Z18mprog_time_triggerP9char_data"
n874:	.asciz	"_Z18mprog_type_to_namei"
n875:	.asciz	"_Z18nanny_get_new_raceP15descriptor_dataPKc"
n876:	.asciz	"_Z18oprog_drop_triggerP9char_dataP8obj_data"
n877:	.asciz	"_Z18oprog_pull_triggerP9char_dataP8obj_data"
n878:	.asciz	"_Z18oprog_push_triggerP9char_dataP8obj_data"
n879:	.asciz	"_Z18oprog_wear_triggerP9char_dataP8obj_data"
n880:	.asciz	"_Z18pager_printf_colorP9char_dataPKcz"
n881:	.asciz	"_Z18process_compressedP15descriptor_data"
n882:	.asciz	"_Z18remap_slot_numbersv"
n883:	.asciz	"_Z18remove_all_rostersP9clan_data"
n884:	.asciz	"_Z18remove_room_affectP15room_index_dataP9char_databPKc"
n885:	.asciz	"_Z18roomprog_file_readP15room_index_dataPKc"
n886:	.asciz	"_Z18rprog_hour_triggerP9char_data"
n887:	.asciz	"_Z18rprog_rest_triggerP9char_data"
n888:	.asciz	"_Z18rprog_time_triggerP9char_data"
n889:	.asciz	"_Z18saves_poison_deathiP9char_data"
n890:	.asciz	"_Z18send_morph_messageP9char_dataP10morph_datab"
n891:	.asciz	"_Z18send_to_char_colorPKcP9char_data"
n892:	.asciz	"_Z18send_to_desc_colorPKcP15descriptor_data"
n893:	.asciz	"_Z18successful_castingP10skill_typeP9char_dataS2_P8obj_data"
n894:	.asciz	"_Z18trworld_char_checkP9char_data"
n895:	.asciz	"_Z18write_council_listv"
n896:	.asciz	"_Z19DropsBelowThresholdiii"
n897:	.asciz	"_Z19add_new_room_to_mapP9char_datac"
n898:	.asciz	"_Z19better_mental_stateP9char_datai"
n899:	.asciz	"_Z19check_area_conflictP9area_dataii"
n900:	.asciz	"_Z19fread_fuss_areadataP9__sFILE64P9area_data"
n901:	.asciz	"_Z19fread_fuss_roomprogP9__sFILE64P13mob_prog_dataP15room_index_data"
n902:	.asciz	"_Z19fread_string_nohashP9__sFILE64"
n903:	.asciz	"_Z19get_real_obj_weightP8obj_data"
n904:	.asciz	"_Z19hallucinated_objectib"
n905:	.asciz	"_Z19is_attack_supressedP9char_data"
n906:	.asciz	"_Z19load_smaugwiz_resetP15room_index_dataP9__sFILE64"
n907:	.asciz	"_Z19mprog_bribe_triggerP9char_dataS0_i"
n908:	.asciz	"_Z19mprog_death_triggerP9char_dataS0_"
n909:	.asciz	"_Z19mprog_entry_triggerP9char_data"
n910:	.asciz	"_Z19mprog_fight_triggerP9char_dataS0_"
n911:	.asciz	"_Z19mprog_greet_triggerP9char_data"
n912:	.asciz	"_Z19mprog_keyword_checkPKcS0_"
n913:	.asciz	"_Z19mprog_percent_checkP9char_dataS0_P8obj_dataPvi"
n914:	.asciz	"_Z19mprog_read_programsP9__sFILE64P14mob_index_data"
n915:	.asciz	"_Z19nanny_get_new_classP15descriptor_dataPKc"
n916:	.asciz	"_Z19oprog_greet_triggerP9char_data"
n917:	.asciz	"_Z19oprog_percent_checkP9char_dataS0_P8obj_dataPvi"
n918:	.asciz	"_Z19oprog_read_programsP9__sFILE64P14obj_index_data"
n919:	.asciz	"_Z19queue_extracted_objP8obj_data"
n920:	.asciz	"_Z19recursive_note_findP8obj_dataPKc"
n921:	.asciz	"_Z19renumber_put_resetsP15room_index_data"
n922:	.asciz	"_Z19rprog_death_triggerP9char_data"
n923:	.asciz	"_Z19rprog_enter_triggerP9char_data"
n924:	.asciz	"_Z19rprog_leave_triggerP9char_data"
n925:	.asciz	"_Z19rprog_percent_checkP9char_dataS0_P8obj_dataPvi"
n926:	.asciz	"_Z19rprog_read_programsP9__sFILE64P15room_index_data"
n927:	.asciz	"_Z19rprog_sleep_triggerP9char_data"
n928:	.asciz	"_Z19save_clan_storeroomP9char_dataP9clan_data"
n929:	.asciz	"_Z19send_to_pager_colorPKcP9char_data"
n930:	.asciz	"_Z19show_char_to_char_0P9char_dataS0_"
n931:	.asciz	"_Z19show_char_to_char_1P9char_dataS0_"
n932:	.asciz	"_Z19worsen_mental_stateP9char_datai"
n933:	.asciz	"_Z19write_to_descriptorP15descriptor_dataPKci"
n934:	.asciz	"_Z20InitializeWeatherMapv"
n935:	.asciz	"_Z20char_calendar_updatev"
n936:	.asciz	"_Z20check_area_conflictsii"
n937:	.asciz	"_Z20check_illegal_pstealP9char_dataS0_"
n938:	.asciz	"_Z20check_room_for_trapsP9char_datai"
n939:	.asciz	"_Z20gather_renumber_dataP9area_dataib"
n940:	.asciz	"_Z20isRainingCatsAndDogsi"
n941:	.asciz	"_Z20isTorrentialDownpouri"
n942:	.asciz	"_Z20is_wielding_poisonedP9char_data"
n943:	.asciz	"_Z20mprog_random_triggerP9char_data"
n944:	.asciz	"_Z20mprog_script_triggerP9char_data"
n945:	.asciz	"_Z20mprog_speech_triggerPKcP9char_data"
n946:	.asciz	"_Z20mprog_wordlist_checkPKcP9char_dataS2_P8obj_dataPKvi"
n947:	.asciz	"_Z20nifty_is_name_prefixPKcS0_"
n948:	.asciz	"_Z20oprog_damage_triggerP9char_dataP8obj_data"
n949:	.asciz	"_Z20oprog_random_triggerP8obj_data"
n950:	.asciz	"_Z20oprog_remove_triggerP9char_dataP8obj_data"
n951:	.asciz	"_Z20oprog_repair_triggerP9char_dataP8obj_data"
n952:	.asciz	"_Z20oprog_script_triggerP8obj_data"
n953:	.asciz	"_Z20oprog_speech_triggerPKcP9char_data"
n954:	.asciz	"_Z20oprog_wordlist_checkPKcP9char_dataS2_P8obj_dataPKviS4_"
n955:	.asciz	"_Z20queue_extracted_charP9char_datab"
n956:	.asciz	"_Z20read_from_descriptorP15descriptor_data"
n957:	.asciz	"_Z20rprog_random_triggerP9char_data"
n958:	.asciz	"_Z20rprog_rfight_triggerP9char_data"
n959:	.asciz	"_Z20rprog_script_triggerP15room_index_data"
n960:	.asciz	"_Z20rprog_speech_triggerPKcP9char_data"
n961:	.asciz	"_Z20rprog_wordlist_checkPKcP9char_dataS2_P8obj_dataPKviP15room_index_data"
n962:	.asciz	"_Z20tiny_affect_loc_namei"
n963:	.asciz	"_Z21check_immortal_domainP9char_dataPKc"
n964:	.asciz	"_Z21get_project_by_numberi"
n965:	.asciz	"_Z21mprog_command_triggerP9char_dataPc"
n966:	.asciz	"_Z21oprog_command_triggerP9char_dataPc"
n967:	.asciz	"_Z21oprog_examine_triggerP9char_dataP8obj_data"
n968:	.asciz	"_Z21rprog_command_triggerP9char_dataPc"
n969:	.asciz	"_Z22loot_coins_from_corpseP9char_dataP8obj_data"
n970:	.asciz	"_Z22mprog_hitprcnt_triggerP9char_dataS0_"
n971:	.asciz	"_Z22nanny_confirm_new_nameP15descriptor_dataPc"
n972:	.asciz	"_Z22nanny_get_new_passwordP15descriptor_dataPc"
n973:	.asciz	"_Z22nanny_get_old_passwordP15descriptor_dataPc"
n974:	.asciz	"_Z22nanny_get_want_ripansiP15descriptor_dataPKc"
n975:	.asciz	"_Z23weapon_prof_bonus_checkP9char_dataP8obj_dataPi"
n976:	.asciz	"_Z23write_to_descriptor_oldiPKci"
n977:	.asciz	"_Z24EnforceClimateConditionsv"
n978:	.asciz	"_Z24check_for_area_conflictsP9area_dataii"
n979:	.asciz	"_Z24process_spell_componentsP9char_datai"
n980:	.asciz	"_Z26CalculateCellToCellChangesv"
n981:	.asciz	"_Z26ability_learn_from_successP9char_datai"
n982:	.asciz	"_Z26nanny_confirm_new_passwordP15descriptor_dataPc"
n983:	.asciz	"_Z26write_to_descriptor_printfP15descriptor_dataPKcz"
n984:	.asciz	"_Z28show_visible_affects_to_charP9char_dataS0_"
n985:	.asciz	"_Z3actsPKcP9char_dataPKvS4_i"
n986:	.asciz	"_Z3bugPKcz"
n987:	.asciz	"_Z3mebi"
n988:	.asciz	"_Z4diceii"
n989:	.asciz	"_Z4tripP9char_dataS0_"
n990:	.asciz	"_Z4umaxii"
n991:	.asciz	"_Z4uminii"
n992:	.asciz	"_Z5aoranPKc"
n993:	.asciz	"_Z5isHoti"
n994:	.asciz	"_Z5myobjP8obj_data"
n995:	.asciz	"_Z5nannyP15descriptor_dataPc"
n996:	.asciz	"_Z5paintsP9char_dataPKcz"
n997:	.asciz	"_Z6c_timeli"
n998:	.asciz	"_Z6chanceP9char_datas"
n999:	.asciz	"_Z6damageP9char_dataS0_ii"
n1000:	.asciz	"_Z6disarmP9char_dataS0_"
n1001:	.asciz	"_Z6dragonP9char_dataPKc"
n1002:	.asciz	"_Z6isColdi"
n1003:	.asciz	"_Z6isCooli"
n1004:	.asciz	"_Z6isWarmi"
n1005:	.asciz	"_Z6mpcopyP13mob_prog_dataS0_"
n1006:	.asciz	"_Z6mpeditP9char_dataP13mob_prog_dataiPKc"
n1007:	.asciz	"_Z6rpeditP9char_dataP13mob_prog_dataiPc"
n1008:	.asciz	"_Z6urangeiii"
n1009:	.asciz	"_Z7VAMP_ACP9char_data"
n1010:	.asciz	"_Z7add_banP9char_dataPKcS2_ii"
n1011:	.asciz	"_Z7add_dnsPKcS0_"
n1012:	.asciz	"_Z7advatoiPc"
n1013:	.asciz	"_Z7boot_dbb"
n1014:	.asciz	"_Z7can_seeP9char_dataS0_"
n1015:	.asciz	"_Z7do_noteP9char_dataPKcb"
n1016:	.asciz	"_Z7getTempP11WeatherCell"
n1017:	.asciz	"_Z7get_dirPKc"
n1018:	.asciz	"_Z7get_expP9char_data"
n1019:	.asciz	"_Z7get_liqPKc"
n1020:	.asciz	"_Z7get_mixPKc"
n1021:	.asciz	"_Z7get_objP9char_dataP8obj_dataS2_"
n1022:	.asciz	"_Z7get_tagP9char_dataPci"
n1023:	.asciz	"_Z7has_keyP9char_datai"
n1024:	.asciz	"_Z7init_mmv"
n1025:	.asciz	"_Z7isHumidi"
n1026:	.asciz	"_Z7is_namePKcS0_"
n1027:	.asciz	"_Z7is_safeP9char_dataS0_b"
n1028:	.asciz	"_Z7one_hitP9char_dataS0_i"
n1029:	.asciz	"_Z7progbugPKcP9char_data"
n1030:	.asciz	"_Z7str_cmpPKcS0_"
n1031:	.asciz	"_Z7str_dupPKc"
n1032:	.asciz	"_Z8SwapHintP9hint_dataS0_"
n1033:	.asciz	"_Z8add_charP9char_data"
n1034:	.asciz	"_Z8add_helpP9help_data"
n1035:	.asciz	"_Z8add_killP9char_dataS0_"
n1036:	.asciz	"_Z8apply_acP8obj_datai"
n1037:	.asciz	"_Z8boot_logPKcz"
n1038:	.asciz	"_Z8can_dualP9char_data"
n1039:	.asciz	"_Z8can_postP9char_dataP10board_data"
n1040:	.asciz	"_Z8can_readP9char_dataP10board_data"
n1041:	.asciz	"_Z8colorizePKcP15descriptor_data"
n1042:	.asciz	"_Z8do_morphP9char_dataP10morph_data"
n1043:	.asciz	"_Z8do_mptagP9char_dataPKc"
n1044:	.asciz	"_Z8find_objP9char_dataPKcb"
n1045:	.asciz	"_Z8fix_charP9char_data"
n1046:	.asciz	"_Z8free_banP8ban_data"
n1047:	.asciz	"_Z8free_objP8obj_data"
n1048:	.asciz	"_Z8gain_expP9char_datai"
n1049:	.asciz	"_Z8getWindXP11WeatherCell"
n1050:	.asciz	"_Z8getWindYP11WeatherCell"
n1051:	.asciz	"_Z8get_areaPc"
n1052:	.asciz	"_Z8get_clanPKc"
n1053:	.asciz	"_Z8get_costP9char_dataS0_P8obj_datab"
n1054:	.asciz	"_Z8get_doorPKc"
n1055:	.asciz	"_Z8get_exitP15room_index_datas"
n1056:	.asciz	"_Z8get_helpP9char_dataPKc"
n1057:	.asciz	"_Z8get_hinti"
n1058:	.asciz	"_Z8get_langPKc"
n1059:	.asciz	"_Z8get_linePcj"
n1060:	.asciz	"_Z8get_raceP9char_data"
n1061:	.asciz	"_Z8get_trapP8obj_data"
n1062:	.asciz	"_Z8getcolorc"
n1063:	.asciz	"_Z8help_fixPKc"
n1064:	.asciz	"_Z8hit_gainP9char_data"
n1065:	.asciz	"_Z8in_arenaP9char_data"
n1066:	.asciz	"_Z8isChillyi"
n1067:	.asciz	"_Z8isCloudyi"
n1068:	.asciz	"_Z8isFrostyi"
n1069:	.asciz	"_Z8isStormyi"
n1070:	.asciz	"_Z8is_name2PKcS0_"
n1071:	.asciz	"_Z8isavowelc"
n1072:	.asciz	"_Z8load_dnsv"
n1073:	.asciz	"_Z8look_skyP9char_data"
n1074:	.asciz	"_Z8mob_fireP9char_dataPKc"
n1075:	.asciz	"_Z8multimebiz"
n1076:	.asciz	"_Z8obj_fallP8obj_datab"
n1077:	.asciz	"_Z8parsebetiPc"
n1078:	.asciz	"_Z8raw_killP9char_dataS0_"
n1079:	.asciz	"_Z8rd_parseP9char_dataiPc"
n1080:	.asciz	"_Z8read_logP9__sFILE64"
n1081:	.asciz	"_Z8rev_exits"
n1082:	.asciz	"_Z8ris_saveP9char_dataii"
n1083:	.asciz	"_Z8roomdescP9char_data"
n1084:	.asciz	"_Z8save_dnsv"
n1085:	.asciz	"_Z8scramblePKci"
n1086:	.asciz	"_Z8show_mapP9char_dataPc"
n1087:	.asciz	"_Z8str_freePKc"
n1088:	.asciz	"_Z8strip_crPKc"
n1089:	.asciz	"_Z8strlowerPKc"
n1090:	.asciz	"_Z8strupperPKc"
n1091:	.asciz	"_Z8tag_charP9char_dataP13variable_datai"
n1092:	.asciz	"_Z8teleportP9char_dataii"
n1093:	.asciz	"_Z8wear_objP9char_dataP8obj_databs"
n1094:	.asciz	"_Z8wordwrapPcs"
n1095:	.asciz	"_Z9DelOExtraP8obj_dataPKc"
n1096:	.asciz	"_Z9DelRExtraP15room_index_dataPKc"
n1097:	.asciz	"_Z9MORPHNAMEP9char_data"
n1098:	.asciz	"_Z9RelCreate13relation_typePvS0_"
n1099:	.asciz	"_Z9SetOExtraP8obj_dataPKc"
n1100:	.asciz	"_Z9SetRExtraP15room_index_dataPKc"
n1101:	.asciz	"_Z9add_resetP15room_index_dataciiii"
n1102:	.asciz	"_Z9add_timerP9char_datasiPFvS0_PKcEi"
n1103:	.asciz	"_Z9can_charmP9char_data"
n1104:	.asciz	"_Z9can_layerP9char_dataP8obj_datas"
n1105:	.asciz	"_Z9can_meditP9char_dataP14mob_index_data"
n1106:	.asciz	"_Z9can_morphP9char_dataP10morph_datab"
n1107:	.asciz	"_Z9can_oeditP9char_dataP14obj_index_data"
n1108:	.asciz	"_Z9ch_printfP9char_dataPKcz"
n1109:	.asciz	"_Z9char_diedP9char_data"
n1110:	.asciz	"_Z9check_dnsv"
n1111:	.asciz	"_Z9check_mapPKc"
n1112:	.asciz	"_Z9check_posP9char_datas"
n1113:	.asciz	"_Z9chk_watchsPKcS0_"
n1114:	.asciz	"_Z9clean_mobP14mob_index_data"
n1115:	.asciz	"_Z9clean_objP14obj_index_data"
n1116:	.asciz	"_Z9color_strsP9char_data"
n1117:	.asciz	"_Z9colorcodePKcPcP15descriptor_dataiPi"
n1118:	.asciz	"_Z9death_cryP9char_data"
n1119:	.asciz	"_Z9do_mpflagP9char_dataPKc"
n1120:	.asciz	"_Z9do_owhereP9char_dataPKc"
n1121:	.asciz	"_Z9do_rpcopyP9char_dataPKc"
n1122:	.asciz	"_Z9empty_objP8obj_dataS0_P15room_index_data"
n1123:	.asciz	"_Z9end_timerP7timeval"
n1124:	.asciz	"_Z9exit_compPP9exit_dataS1_"
n1125:	.asciz	"_Z9exp_levelP9char_datas"
n1126:	.asciz	"_Z9find_areaPcPb"
n1127:	.asciz	"_Z9find_doorP9char_dataPKcb"
n1128:	.asciz	"_Z9fix_exitsv"
n1129:	.asciz	"_Z9fold_areaP9area_dataPKcb"
n1130:	.asciz	"_Z9fread_banP9__sFILE64i"
n1131:	.asciz	"_Z9fread_cnvP9__sFILE64PP9lcnv_dataS3_"
n1132:	.asciz	"_Z9fread_dayP12holiday_dataP9__sFILE64"
n1133:	.asciz	"_Z9fread_dnsP8dns_dataP9__sFILE64"
n1134:	.asciz	"_Z9fread_objP9char_dataP9__sFILE64s"
n1135:	.asciz	"_Z9free_bansv"
n1136:	.asciz	"_Z9free_charP9char_data"
n1137:	.asciz	"_Z9free_descP15descriptor_data"
n1138:	.asciz	"_Z9free_gameP15game_board_data"
n1139:	.asciz	"_Z9free_helpP9help_data"
n1140:	.asciz	"_Z9free_noteP9note_data"
n1141:	.asciz	"_Z9game_loopv"
n1142:	.asciz	"_Z9getEnergyP11WeatherCell"
n1143:	.asciz	"_Z9getPrecipP11WeatherCell"
n1144:	.asciz	"_Z9get_aflagPKc"
n1145:	.asciz	"_Z9get_atypePKc"
n1146:	.asciz	"_Z9get_boardP8obj_data"
n1147:	.asciz	"_Z9get_classP9char_data"
n1148:	.asciz	"_Z9get_colorPKc"
n1149:	.asciz	"_Z9get_deityPKc"
n1150:	.asciz	"_Z9get_exitsP9char_data"
n1151:	.asciz	"_Z9get_morphPKc"
n1152:	.asciz	"_Z9get_oflagPKc"
n1153:	.asciz	"_Z9get_otypePKc"
n1154:	.asciz	"_Z9get_rflagPKc"
n1155:	.asciz	"_Z9get_sflagPKc"
n1156:	.asciz	"_Z9get_skillPKc"
n1157:	.asciz	"_Z9get_ssavePKc"
n1158:	.asciz	"_Z9get_timerP9char_datas"
n1159:	.asciz	"_Z9get_trustP9char_data"
n1160:	.asciz	"_Z9get_wflagPKc"
n1161:	.asciz	"_Z9grab_newsP9news_typePKc"
n1162:	.asciz	"_Z9grab_wordPcS_"
n1163:	.asciz	"_Z9hash_dumpi"
n1164:	.asciz	"_Z9instaroomP15room_index_datab"
n1165:	.asciz	"_Z9interpretP9char_dataPKc"
n1166:	.asciz	"_Z9interpretP9char_dataPc"
n1167:	.asciz	"_Z9isMistingi"
n1168:	.asciz	"_Z9isPouringi"
n1169:	.asciz	"_Z9isRainingi"
n1170:	.asciz	"_Z9isVeryHoti"
n1171:	.asciz	"_Z9is_hatingP9char_dataS0_"
n1172:	.asciz	"_Z9is_immuneP9char_datas"
n1173:	.asciz	"_Z9is_numberPKc"
n1174:	.asciz	"_Z9level_expP9char_datai"
n1175:	.asciz	"_Z9load_areaP9__sFILE64i"
n1176:	.asciz	"_Z9load_hintv"
n1177:	.asciz	"_Z9load_newsv"
n1178:	.asciz	"_Z9make_exitP15room_index_dataS0_s"
n1179:	.asciz	"_Z9make_fireP15room_index_datas"
n1180:	.asciz	"_Z9make_roomiP9area_data"
n1181:	.asciz	"_Z9make_trapiiii"
n1182:	.asciz	"_Z9mana_gainP9char_data"
n1183:	.asciz	"_Z9map_exitsP9char_dataP15room_index_dataiii"
n1184:	.asciz	"_Z9map_statsP9char_dataPiS1_S1_"
n1185:	.asciz	"_Z9move_charP9char_dataP9exit_datai"
n1186:	.asciz	"_Z9move_gainP9char_data"
n1187:	.asciz	"_Z9multi_hitP9char_dataS0_i"
n1188:	.asciz	"_Z9num_puncti"
n1189:	.asciz	"_Z9number_mmv"
n1190:	.asciz	"_Z9obj_shortP8obj_data"
n1191:	.asciz	"_Z9prune_dnsv"
n1192:	.asciz	"_Z9pullcheckP9char_datai"
n1193:	.asciz	"_Z9read_hintPcP9__sFILE64"
n1194:	.asciz	"_Z9read_noteP9__sFILE64"
n1195:	.asciz	"_Z9save_clanP9clan_data"
n1196:	.asciz	"_Z9save_newsv"
n1197:	.asciz	"_Z9say_spellP9char_datai"
n1198:	.asciz	"_Z9set_alarml"
n1199:	.asciz	"_Z9set_titleP9char_dataPKc"
n1200:	.asciz	"_Z9show_bansP9char_datai"
n1201:	.asciz	"_Z9show_fileP9char_dataPKc"
n1202:	.asciz	"_Z9show_hashi"
n1203:	.asciz	"_Z9show_msspP9char_data"
n1204:	.asciz	"_Z9sort_areaP9area_datab"
n1205:	.asciz	"_Z9split_objP8obj_datai"
n1206:	.asciz	"_Z9str_allocPKc"
n1207:	.asciz	"_Z9str_infixPKcS0_"
n1208:	.asciz	"_Z9towizfilePKc"
n1209:	.asciz	"_Z9translateiPKcS0_"
n1210:	.asciz	"_Z9whatColorPcS_"
n1211:	.asciz	"_Z9will_fallP9char_datai"
n1212:	.asciz	"_ZTI10board_data"
n1213:	.asciz	"_ZTI10char_morph"
n1214:	.asciz	"_ZTI10class_type"
n1215:	.asciz	"_ZTI10deity_data"
n1216:	.asciz	"_ZTI10morph_data"
n1217:	.asciz	"_ZTI10plane_data"
n1218:	.asciz	"_ZTI10reset_data"
n1219:	.asciz	"_ZTI10skill_type"
n1220:	.asciz	"_ZTI10timer_data"
n1221:	.asciz	"_ZTI10watch_data"
n1222:	.asciz	"_ZTI10z_stream_s"
n1223:	.asciz	"_ZTI11affect_data"
n1224:	.asciz	"_ZTI11editor_data"
n1225:	.asciz	"_ZTI11ignore_data"
n1226:	.asciz	"_ZTI11roster_data"
n1227:	.asciz	"_ZTI11social_type"
n1228:	.asciz	"_ZTI12auction_data"
n1229:	.asciz	"_ZTI12council_data"
n1230:	.asciz	"_ZTI12holiday_data"
n1231:	.asciz	"_ZTI12liquid_table"
n1232:	.asciz	"_ZTI12mixture_list"
n1233:	.asciz	"_ZTI12mpsleep_data"
n1234:	.asciz	"_ZTI12project_data"
n1235:	.asciz	"_ZTI12reserve_data"
n1236:	.asciz	"_ZTI12smaug_affect"
n1237:	.asciz	"_ZTI12specfun_list"
n1238:	.asciz	"_ZTI13act_prog_data"
n1239:	.asciz	"_ZTI13fighting_data"
n1240:	.asciz	"_ZTI13immortal_host"
n1241:	.asciz	"_ZTI13mob_prog_data"
n1242:	.asciz	"_ZTI13nuisance_data"
n1243:	.asciz	"_ZTI13renumber_data"
n1244:	.asciz	"_ZTI13teleport_data"
n1245:	.asciz	"_ZTI13variable_data"
n1246:	.asciz	"_ZTI14hunt_hate_fear"
n1247:	.asciz	"_ZTI14ipcompare_data"
n1248:	.asciz	"_ZTI14mob_index_data"
n1249:	.asciz	"_ZTI14obj_index_data"
n1250:	.asciz	"_ZTI14renumber_areas"
n1251:	.asciz	"_ZTI15descriptor_data"
n1252:	.asciz	"_ZTI15game_board_data"
n1253:	.asciz	"_ZTI15repairshop_data"
n1254:	.asciz	"_ZTI15room_index_data"
n1255:	.asciz	"_ZTI16extra_descr_data"
n1256:	.asciz	"_ZTI17mob_prog_act_list"
n1257:	.asciz	"_ZTI19extracted_char_data"
n1258:	.asciz	"_ZTI6wizent"
n1259:	.asciz	"_ZTI7pc_data"
n1260:	.asciz	"_ZTI7whogr_s"
n1261:	.asciz	"_ZTI8ban_data"
n1262:	.asciz	"_ZTI8cmd_type"
n1263:	.asciz	"_ZTI8dns_data"
n1264:	.asciz	"_ZTI8obj_data"
n1265:	.asciz	"_ZTI8rel_data"
n1266:	.asciz	"_ZTI8who_data"
n1267:	.asciz	"_ZTI9area_data"
n1268:	.asciz	"_ZTI9char_data"
n1269:	.asciz	"_ZTI9clan_data"
n1270:	.asciz	"_ZTI9exit_data"
n1271:	.asciz	"_ZTI9help_data"
n1272:	.asciz	"_ZTI9hint_data"
n1273:	.asciz	"_ZTI9lang_data"
n1274:	.asciz	"_ZTI9lcnv_data"
n1275:	.asciz	"_ZTI9lmsg_data"
n1276:	.asciz	"_ZTI9mccp_data"
n1277:	.asciz	"_ZTI9mssp_info"
n1278:	.asciz	"_ZTI9news_data"
n1279:	.asciz	"_ZTI9news_type"
n1280:	.asciz	"_ZTI9note_data"
n1281:	.asciz	"_ZTI9race_type"
n1282:	.asciz	"_ZTI9shop_data"
n1283:	.asciz	"_ZTIP10board_data"
n1284:	.asciz	"_ZTIP10char_morph"
n1285:	.asciz	"_ZTIP10class_type"
n1286:	.asciz	"_ZTIP10deity_data"
n1287:	.asciz	"_ZTIP10morph_data"
n1288:	.asciz	"_ZTIP10plane_data"
n1289:	.asciz	"_ZTIP10reset_data"
n1290:	.asciz	"_ZTIP10skill_type"
n1291:	.asciz	"_ZTIP10timer_data"
n1292:	.asciz	"_ZTIP10watch_data"
n1293:	.asciz	"_ZTIP10z_stream_s"
n1294:	.asciz	"_ZTIP11affect_data"
n1295:	.asciz	"_ZTIP11editor_data"
n1296:	.asciz	"_ZTIP11ignore_data"
n1297:	.asciz	"_ZTIP11roster_data"
n1298:	.asciz	"_ZTIP11social_type"
n1299:	.asciz	"_ZTIP12auction_data"
n1300:	.asciz	"_ZTIP12council_data"
n1301:	.asciz	"_ZTIP12holiday_data"
n1302:	.asciz	"_ZTIP12liquid_table"
n1303:	.asciz	"_ZTIP12mixture_list"
n1304:	.asciz	"_ZTIP12mpsleep_data"
n1305:	.asciz	"_ZTIP12project_data"
n1306:	.asciz	"_ZTIP12reserve_data"
n1307:	.asciz	"_ZTIP12smaug_affect"
n1308:	.asciz	"_ZTIP12specfun_list"
n1309:	.asciz	"_ZTIP13act_prog_data"
n1310:	.asciz	"_ZTIP13fighting_data"
n1311:	.asciz	"_ZTIP13immortal_host"
n1312:	.asciz	"_ZTIP13mob_prog_data"
n1313:	.asciz	"_ZTIP13nuisance_data"
n1314:	.asciz	"_ZTIP13renumber_data"
n1315:	.asciz	"_ZTIP13teleport_data"
n1316:	.asciz	"_ZTIP13variable_data"
n1317:	.asciz	"_ZTIP14hunt_hate_fear"
n1318:	.asciz	"_ZTIP14ipcompare_data"
n1319:	.asciz	"_ZTIP14mob_index_data"
n1320:	.asciz	"_ZTIP14obj_index_data"
n1321:	.asciz	"_ZTIP14renumber_areas"
n1322:	.asciz	"_ZTIP15descriptor_data"
n1323:	.asciz	"_ZTIP15game_board_data"
n1324:	.asciz	"_ZTIP15repairshop_data"
n1325:	.asciz	"_ZTIP15room_index_data"
n1326:	.asciz	"_ZTIP16extra_descr_data"
n1327:	.asciz	"_ZTIP17mob_prog_act_list"
n1328:	.asciz	"_ZTIP19extracted_char_data"
n1329:	.asciz	"_ZTIP6wizent"
n1330:	.asciz	"_ZTIP7pc_data"
n1331:	.asciz	"_ZTIP7whogr_s"
n1332:	.asciz	"_ZTIP8ban_data"
n1333:	.asciz	"_ZTIP8cmd_type"
n1334:	.asciz	"_ZTIP8dns_data"
n1335:	.asciz	"_ZTIP8obj_data"
n1336:	.asciz	"_ZTIP8rel_data"
n1337:	.asciz	"_ZTIP8who_data"
n1338:	.asciz	"_ZTIP9area_data"
n1339:	.asciz	"_ZTIP9char_data"
n1340:	.asciz	"_ZTIP9clan_data"
n1341:	.asciz	"_ZTIP9exit_data"
n1342:	.asciz	"_ZTIP9help_data"
n1343:	.asciz	"_ZTIP9hint_data"
n1344:	.asciz	"_ZTIP9lang_data"
n1345:	.asciz	"_ZTIP9lcnv_data"
n1346:	.asciz	"_ZTIP9lmsg_data"
n1347:	.asciz	"_ZTIP9mccp_data"
n1348:	.asciz	"_ZTIP9mssp_info"
n1349:	.asciz	"_ZTIP9news_data"
n1350:	.asciz	"_ZTIP9news_type"
n1351:	.asciz	"_ZTIP9note_data"
n1352:	.asciz	"_ZTIP9race_type"
n1353:	.asciz	"_ZTIP9shop_data"
n1354:	.asciz	"_ZTIPPKc"
n1355:	.asciz	"_ZTIPPc"
n1356:	.asciz	"_ZTS10board_data"
n1357:	.asciz	"_ZTS10char_morph"
n1358:	.asciz	"_ZTS10class_type"
n1359:	.asciz	"_ZTS10deity_data"
n1360:	.asciz	"_ZTS10morph_data"
n1361:	.asciz	"_ZTS10plane_data"
n1362:	.asciz	"_ZTS10reset_data"
n1363:	.asciz	"_ZTS10skill_type"
n1364:	.asciz	"_ZTS10timer_data"
n1365:	.asciz	"_ZTS10watch_data"
n1366:	.asciz	"_ZTS10z_stream_s"
n1367:	.asciz	"_ZTS11affect_data"
n1368:	.asciz	"_ZTS11editor_data"
n1369:	.asciz	"_ZTS11ignore_data"
n1370:	.asciz	"_ZTS11roster_data"
n1371:	.asciz	"_ZTS11social_type"
n1372:	.asciz	"_ZTS12auction_data"
n1373:	.asciz	"_ZTS12council_data"
n1374:	.asciz	"_ZTS12holiday_data"
n1375:	.asciz	"_ZTS12liquid_table"
n1376:	.asciz	"_ZTS12mixture_list"
n1377:	.asciz	"_ZTS12mpsleep_data"
n1378:	.asciz	"_ZTS12project_data"
n1379:	.asciz	"_ZTS12reserve_data"
n1380:	.asciz	"_ZTS12smaug_affect"
n1381:	.asciz	"_ZTS12specfun_list"
n1382:	.asciz	"_ZTS13act_prog_data"
n1383:	.asciz	"_ZTS13fighting_data"
n1384:	.asciz	"_ZTS13immortal_host"
n1385:	.asciz	"_ZTS13mob_prog_data"
n1386:	.asciz	"_ZTS13nuisance_data"
n1387:	.asciz	"_ZTS13renumber_data"
n1388:	.asciz	"_ZTS13teleport_data"
n1389:	.asciz	"_ZTS13variable_data"
n1390:	.asciz	"_ZTS14hunt_hate_fear"
n1391:	.asciz	"_ZTS14ipcompare_data"
n1392:	.asciz	"_ZTS14mob_index_data"
n1393:	.asciz	"_ZTS14obj_index_data"
n1394:	.asciz	"_ZTS14renumber_areas"
n1395:	.asciz	"_ZTS15descriptor_data"
n1396:	.asciz	"_ZTS15game_board_data"
n1397:	.asciz	"_ZTS15repairshop_data"
n1398:	.asciz	"_ZTS15room_index_data"
n1399:	.asciz	"_ZTS16extra_descr_data"
n1400:	.asciz	"_ZTS17mob_prog_act_list"
n1401:	.asciz	"_ZTS19extracted_char_data"
n1402:	.asciz	"_ZTS6wizent"
n1403:	.asciz	"_ZTS7pc_data"
n1404:	.asciz	"_ZTS7whogr_s"
n1405:	.asciz	"_ZTS8ban_data"
n1406:	.asciz	"_ZTS8cmd_type"
n1407:	.asciz	"_ZTS8dns_data"
n1408:	.asciz	"_ZTS8obj_data"
n1409:	.asciz	"_ZTS8rel_data"
n1410:	.asciz	"_ZTS8who_data"
n1411:	.asciz	"_ZTS9area_data"
n1412:	.asciz	"_ZTS9char_data"
n1413:	.asciz	"_ZTS9clan_data"
n1414:	.asciz	"_ZTS9exit_data"
n1415:	.asciz	"_ZTS9help_data"
n1416:	.asciz	"_ZTS9hint_data"
n1417:	.asciz	"_ZTS9lang_data"
n1418:	.asciz	"_ZTS9lcnv_data"
n1419:	.asciz	"_ZTS9lmsg_data"
n1420:	.asciz	"_ZTS9mccp_data"
n1421:	.asciz	"_ZTS9mssp_info"
n1422:	.asciz	"_ZTS9news_data"
n1423:	.asciz	"_ZTS9news_type"
n1424:	.asciz	"_ZTS9note_data"
n1425:	.asciz	"_ZTS9race_type"
n1426:	.asciz	"_ZTS9shop_data"
n1427:	.asciz	"_ZTSP10board_data"
n1428:	.asciz	"_ZTSP10char_morph"
n1429:	.asciz	"_ZTSP10class_type"
n1430:	.asciz	"_ZTSP10deity_data"
n1431:	.asciz	"_ZTSP10morph_data"
n1432:	.asciz	"_ZTSP10plane_data"
n1433:	.asciz	"_ZTSP10reset_data"
n1434:	.asciz	"_ZTSP10skill_type"
n1435:	.asciz	"_ZTSP10timer_data"
n1436:	.asciz	"_ZTSP10watch_data"
n1437:	.asciz	"_ZTSP10z_stream_s"
n1438:	.asciz	"_ZTSP11affect_data"
n1439:	.asciz	"_ZTSP11editor_data"
n1440:	.asciz	"_ZTSP11ignore_data"
n1441:	.asciz	"_ZTSP11roster_data"
n1442:	.asciz	"_ZTSP11social_type"
n1443:	.asciz	"_ZTSP12auction_data"
n1444:	.asciz	"_ZTSP12council_data"
n1445:	.asciz	"_ZTSP12holiday_data"
n1446:	.asciz	"_ZTSP12liquid_table"
n1447:	.asciz	"_ZTSP12mixture_list"
n1448:	.asciz	"_ZTSP12mpsleep_data"
n1449:	.asciz	"_ZTSP12project_data"
n1450:	.asciz	"_ZTSP12reserve_data"
n1451:	.asciz	"_ZTSP12smaug_affect"
n1452:	.asciz	"_ZTSP12specfun_list"
n1453:	.asciz	"_ZTSP13act_prog_data"
n1454:	.asciz	"_ZTSP13fighting_data"
n1455:	.asciz	"_ZTSP13immortal_host"
n1456:	.asciz	"_ZTSP13mob_prog_data"
n1457:	.asciz	"_ZTSP13nuisance_data"
n1458:	.asciz	"_ZTSP13renumber_data"
n1459:	.asciz	"_ZTSP13teleport_data"
n1460:	.asciz	"_ZTSP13variable_data"
n1461:	.asciz	"_ZTSP14hunt_hate_fear"
n1462:	.asciz	"_ZTSP14ipcompare_data"
n1463:	.asciz	"_ZTSP14mob_index_data"
n1464:	.asciz	"_ZTSP14obj_index_data"
n1465:	.asciz	"_ZTSP14renumber_areas"
n1466:	.asciz	"_ZTSP15descriptor_data"
n1467:	.asciz	"_ZTSP15game_board_data"
n1468:	.asciz	"_ZTSP15repairshop_data"
n1469:	.asciz	"_ZTSP15room_index_data"
n1470:	.asciz	"_ZTSP16extra_descr_data"
n1471:	.asciz	"_ZTSP17mob_prog_act_list"
n1472:	.asciz	"_ZTSP19extracted_char_data"
n1473:	.asciz	"_ZTSP6wizent"
n1474:	.asciz	"_ZTSP7pc_data"
n1475:	.asciz	"_ZTSP7whogr_s"
n1476:	.asciz	"_ZTSP8ban_data"
n1477:	.asciz	"_ZTSP8cmd_type"
n1478:	.asciz	"_ZTSP8dns_data"
n1479:	.asciz	"_ZTSP8obj_data"
n1480:	.asciz	"_ZTSP8rel_data"
n1481:	.asciz	"_ZTSP8who_data"
n1482:	.asciz	"_ZTSP9area_data"
n1483:	.asciz	"_ZTSP9char_data"
n1484:	.asciz	"_ZTSP9clan_data"
n1485:	.asciz	"_ZTSP9exit_data"
n1486:	.asciz	"_ZTSP9help_data"
n1487:	.asciz	"_ZTSP9hint_data"
n1488:	.asciz	"_ZTSP9lang_data"
n1489:	.asciz	"_ZTSP9lcnv_data"
n1490:	.asciz	"_ZTSP9lmsg_data"
n1491:	.asciz	"_ZTSP9mccp_data"
n1492:	.asciz	"_ZTSP9mssp_info"
n1493:	.asciz	"_ZTSP9news_data"
n1494:	.asciz	"_ZTSP9news_type"
n1495:	.asciz	"_ZTSP9note_data"
n1496:	.asciz	"_ZTSP9race_type"
n1497:	.asciz	"_ZTSP9shop_data"
n1498:	.asciz	"_ZTSPPKc"
n1499:	.asciz	"_ZTSPPc"
n1500:	.asciz	"a_flags"
n1501:	.asciz	"a_types"
n1502:	.asciz	"act_flags"
n1503:	.asciz	"alarm_section"
n1504:	.asciz	"area_flags"
n1505:	.asciz	"attack_flags"
n1506:	.asciz	"attack_table"
n1507:	.asciz	"auction"
n1508:	.asciz	"big_pieces"
n1509:	.asciz	"boot_time"
n1510:	.asciz	"cha_app"
n1511:	.asciz	"child_exit_status"
n1512:	.asciz	"class_table"
n1513:	.asciz	"cmd_flag_buf"
n1514:	.asciz	"cmd_flags"
n1515:	.asciz	"command_hash"
n1516:	.asciz	"con_app"
n1517:	.asciz	"control"
n1518:	.asciz	"corpse_descs"
n1519:	.asciz	"cur_char"
n1520:	.asciz	"cur_char_died"
n1521:	.asciz	"cur_obj"
n1522:	.asciz	"cur_obj_extracted"
n1523:	.asciz	"cur_obj_serial"
n1524:	.asciz	"cur_qchars"
n1525:	.asciz	"cur_qobjs"
n1526:	.asciz	"cur_room"
n1527:	.asciz	"current_mpsleep"
n1528:	.asciz	"current_time"
n1529:	.asciz	"d_next"
n1530:	.asciz	"day_name"
n1531:	.asciz	"default_set"
n1532:	.asciz	"defense_flags"
n1533:	.asciz	"dex_app"
n1534:	.asciz	"dir_name"
n1535:	.asciz	"disease_table"
n1536:	.asciz	"dmap"
n1537:	.asciz	"do_aassign"
n1538:	.asciz	"do_add_imm_host"
n1539:	.asciz	"do_advance"
n1540:	.asciz	"do_affected"
n1541:	.asciz	"do_afk"
n1542:	.asciz	"do_aid"
n1543:	.asciz	"do_alinks"
n1544:	.asciz	"do_allow"
n1545:	.asciz	"do_ansi"
n1546:	.asciz	"do_answer"
n1547:	.asciz	"do_apply"
n1548:	.asciz	"do_appraise"
n1549:	.asciz	"do_areas"
n1550:	.asciz	"do_aset"
n1551:	.asciz	"do_ask"
n1552:	.asciz	"do_astat"
n1553:	.asciz	"do_at"
n1554:	.asciz	"do_atobj"
n1555:	.asciz	"do_auction"
n1556:	.asciz	"do_authorize"
n1557:	.asciz	"do_avtalk"
n1558:	.asciz	"do_backstab"
n1559:	.asciz	"do_balzhur"
n1560:	.asciz	"do_bamfin"
n1561:	.asciz	"do_bamfout"
n1562:	.asciz	"do_ban"
n1563:	.asciz	"do_bash"
n1564:	.asciz	"do_bashdoor"
n1565:	.asciz	"do_berserk"
n1566:	.asciz	"do_bestow"
n1567:	.asciz	"do_bestowarea"
n1568:	.asciz	"do_bio"
n1569:	.asciz	"do_bite"
n1570:	.asciz	"do_bloodlet"
n1571:	.asciz	"do_boards"
n1572:	.asciz	"do_bodybag"
n1573:	.asciz	"do_bolt"
n1574:	.asciz	"do_brandish"
n1575:	.asciz	"do_brew"
n1576:	.asciz	"do_broach"
n1577:	.asciz	"do_bset"
n1578:	.asciz	"do_bstat"
n1579:	.asciz	"do_bug"
n1580:	.asciz	"do_bury"
n1581:	.asciz	"do_buy"
n1582:	.asciz	"do_cache"
n1583:	.asciz	"do_cast"
n1584:	.asciz	"do_cedit"
n1585:	.asciz	"do_channels"
n1586:	.asciz	"do_chat"
n1587:	.asciz	"do_check_vnums"
n1588:	.asciz	"do_chess"
n1589:	.asciz	"do_circle"
n1590:	.asciz	"do_clans"
n1591:	.asciz	"do_clantalk"
n1592:	.asciz	"do_claw"
n1593:	.asciz	"do_climb"
n1594:	.asciz	"do_close"
n1595:	.asciz	"do_cmdtable"
n1596:	.asciz	"do_color"
n1597:	.asciz	"do_commands"
n1598:	.asciz	"do_comment"
n1599:	.asciz	"do_compare"
n1600:	.asciz	"do_config"
n1601:	.asciz	"do_consider"
n1602:	.asciz	"do_cook"
n1603:	.asciz	"do_council_induct"
n1604:	.asciz	"do_council_outcast"
n1605:	.asciz	"do_councils"
n1606:	.asciz	"do_counciltalk"
n1607:	.asciz	"do_credits"
n1608:	.asciz	"do_cset"
n1609:	.asciz	"do_deities"
n1610:	.asciz	"do_delay"
n1611:	.asciz	"do_deny"
n1612:	.asciz	"do_description"
n1613:	.asciz	"do_destro"
n1614:	.asciz	"do_destroy"
n1615:	.asciz	"do_detrap"
n1616:	.asciz	"do_devote"
n1617:	.asciz	"do_dig"
n1618:	.asciz	"do_disarm"
n1619:	.asciz	"do_disconnect"
n1620:	.asciz	"do_dismiss"
n1621:	.asciz	"do_dismount"
n1622:	.asciz	"do_dmesg"
n1623:	.asciz	"do_dnd"
n1624:	.asciz	"do_down"
n1625:	.asciz	"do_drag"
n1626:	.asciz	"do_drink"
n1627:	.asciz	"do_drop"
n1628:	.asciz	"do_east"
n1629:	.asciz	"do_eat"
n1630:	.asciz	"do_ech"
n1631:	.asciz	"do_echo"
n1632:	.asciz	"do_editnews"
n1633:	.asciz	"do_elevate"
n1634:	.asciz	"do_emote"
n1635:	.asciz	"do_empty"
n1636:	.asciz	"do_enter"
n1637:	.asciz	"do_equipment"
n1638:	.asciz	"do_examine"
n1639:	.asciz	"do_exits"
n1640:	.asciz	"do_feed"
n1641:	.asciz	"do_fill"
n1642:	.asciz	"do_findexit"
n1643:	.asciz	"do_findnote"
n1644:	.asciz	"do_fire"
n1645:	.asciz	"do_fixchar"
n1646:	.asciz	"do_fixed"
n1647:	.asciz	"do_flee"
n1648:	.asciz	"do_foldarea"
n1649:	.asciz	"do_follow"
n1650:	.asciz	"do_for"
n1651:	.asciz	"do_force"
n1652:	.asciz	"do_forceclose"
n1653:	.asciz	"do_form_password"
n1654:	.asciz	"do_fprompt"
n1655:	.asciz	"do_fquit"
n1656:	.asciz	"do_freeze"
n1657:	.asciz	"do_fshow"
n1658:	.asciz	"do_get"
n1659:	.asciz	"do_gfighting"
n1660:	.asciz	"do_give"
n1661:	.asciz	"do_glance"
n1662:	.asciz	"do_gold"
n1663:	.asciz	"do_goto"
n1664:	.asciz	"do_gouge"
n1665:	.asciz	"do_group"
n1666:	.asciz	"do_gtell"
n1667:	.asciz	"do_guilds"
n1668:	.asciz	"do_guildtalk"
n1669:	.asciz	"do_gwhere"
n1670:	.asciz	"do_hedit"
n1671:	.asciz	"do_hell"
n1672:	.asciz	"do_help"
n1673:	.asciz	"do_hide"
n1674:	.asciz	"do_hintedit"
n1675:	.asciz	"do_hitall"
n1676:	.asciz	"do_hl"
n1677:	.asciz	"do_hlist"
n1678:	.asciz	"do_holidays"
n1679:	.asciz	"do_holylight"
n1680:	.asciz	"do_homepage"
n1681:	.asciz	"do_hotboot"
n1682:	.asciz	"do_hset"
n1683:	.asciz	"do_ide"
n1684:	.asciz	"do_idea"
n1685:	.asciz	"do_ignore"
n1686:	.asciz	"do_imm_morph"
n1687:	.asciz	"do_imm_unmorph"
n1688:	.asciz	"do_immortalize"
n1689:	.asciz	"do_immtalk"
n1690:	.asciz	"do_induct"
n1691:	.asciz	"do_installarea"
n1692:	.asciz	"do_instaroom"
n1693:	.asciz	"do_instazone"
n1694:	.asciz	"do_inventory"
n1695:	.asciz	"do_invis"
n1696:	.asciz	"do_ipcompare"
n1697:	.asciz	"do_khistory"
n1698:	.asciz	"do_kick"
n1699:	.asciz	"do_kill"
n1700:	.asciz	"do_languages"
n1701:	.asciz	"do_last"
n1702:	.asciz	"do_laws"
n1703:	.asciz	"do_leave"
n1704:	.asciz	"do_level"
n1705:	.asciz	"do_light"
n1706:	.asciz	"do_list"
n1707:	.asciz	"do_litterbug"
n1708:	.asciz	"do_loadarea"
n1709:	.asciz	"do_loadup"
n1710:	.asciz	"do_lock"
n1711:	.asciz	"do_log"
n1712:	.asciz	"do_look"
n1713:	.asciz	"do_low_purge"
n1714:	.asciz	"do_mailroom"
n1715:	.asciz	"do_make"
n1716:	.asciz	"do_makeboard"
n1717:	.asciz	"do_makeclan"
n1718:	.asciz	"do_makecouncil"
n1719:	.asciz	"do_makedeity"
n1720:	.asciz	"do_makerepair"
n1721:	.asciz	"do_makeshop"
n1722:	.asciz	"do_makewizlist"
n1723:	.asciz	"do_mapout"
n1724:	.asciz	"do_mcreate"
n1725:	.asciz	"do_mdelete"
n1726:	.asciz	"do_memory"
n1727:	.asciz	"do_mfind"
n1728:	.asciz	"do_minvoke"
n1729:	.asciz	"do_mistwalk"
n1730:	.asciz	"do_mix"
n1731:	.asciz	"do_mlist"
n1732:	.asciz	"do_morphcreate"
n1733:	.asciz	"do_morphdestroy"
n1734:	.asciz	"do_morphlist"
n1735:	.asciz	"do_morphset"
n1736:	.asciz	"do_morphstat"
n1737:	.asciz	"do_mortalize"
n1738:	.asciz	"do_mount"
n1739:	.asciz	"do_mp_close_passage"
n1740:	.asciz	"do_mp_damage"
n1741:	.asciz	"do_mp_deposit"
n1742:	.asciz	"do_mp_fill_in"
n1743:	.asciz	"do_mp_log"
n1744:	.asciz	"do_mp_open_passage"
n1745:	.asciz	"do_mp_practice"
n1746:	.asciz	"do_mp_restore"
n1747:	.asciz	"do_mp_slay"
n1748:	.asciz	"do_mp_withdraw"
n1749:	.asciz	"do_mpadvance"
n1750:	.asciz	"do_mpapply"
n1751:	.asciz	"do_mpapplyb"
n1752:	.asciz	"do_mpasound"
n1753:	.asciz	"do_mpasupress"
n1754:	.asciz	"do_mpat"
n1755:	.asciz	"do_mpbodybag"
n1756:	.asciz	"do_mpcopy"
n1757:	.asciz	"do_mpdelay"
n1758:	.asciz	"do_mpdream"
n1759:	.asciz	"do_mpecho"
n1760:	.asciz	"do_mpechoaround"
n1761:	.asciz	"do_mpechoat"
n1762:	.asciz	"do_mpechozone"
n1763:	.asciz	"do_mpedit"
n1764:	.asciz	"do_mpfavor"
n1765:	.asciz	"do_mpfear"
n1766:	.asciz	"do_mpforce"
n1767:	.asciz	"do_mpgoto"
n1768:	.asciz	"do_mphate"
n1769:	.asciz	"do_mphunt"
n1770:	.asciz	"do_mpinvis"
n1771:	.asciz	"do_mpjunk"
n1772:	.asciz	"do_mpkill"
n1773:	.asciz	"do_mpmload"
n1774:	.asciz	"do_mpmorph"
n1775:	.asciz	"do_mpmset"
n1776:	.asciz	"do_mpmusic"
n1777:	.asciz	"do_mpmusicaround"
n1778:	.asciz	"do_mpmusicat"
n1779:	.asciz	"do_mpnothing"
n1780:	.asciz	"do_mpnuisance"
n1781:	.asciz	"do_mpoload"
n1782:	.asciz	"do_mpoowner"
n1783:	.asciz	"do_mposet"
n1784:	.asciz	"do_mppardon"
n1785:	.asciz	"do_mppeace"
n1786:	.asciz	"do_mppkset"
n1787:	.asciz	"do_mppurge"
n1788:	.asciz	"do_mpscatter"
n1789:	.asciz	"do_mpsound"
n1790:	.asciz	"do_mpsoundaround"
n1791:	.asciz	"do_mpsoundat"
n1792:	.asciz	"do_mpstat"
n1793:	.asciz	"do_mptransfer"
n1794:	.asciz	"do_mpunmorph"
n1795:	.asciz	"do_mpunnuisance"
n1796:	.asciz	"do_mset"
n1797:	.asciz	"do_mstat"
n1798:	.asciz	"do_murde"
n1799:	.asciz	"do_murder"
n1800:	.asciz	"do_muse"
n1801:	.asciz	"do_music"
n1802:	.asciz	"do_mwhere"
n1803:	.asciz	"do_name"
n1804:	.asciz	"do_newbiechat"
n1805:	.asciz	"do_newbieset"
n1806:	.asciz	"do_newzones"
n1807:	.asciz	"do_noemote"
n1808:	.asciz	"do_noresolve"
n1809:	.asciz	"do_north"
n1810:	.asciz	"do_northeast"
n1811:	.asciz	"do_northwest"
n1812:	.asciz	"do_notell"
n1813:	.asciz	"do_noteroom"
n1814:	.asciz	"do_notitle"
n1815:	.asciz	"do_nuisance"
n1816:	.asciz	"do_oclaim"
n1817:	.asciz	"do_ocreate"
n1818:	.asciz	"do_odelete"
n1819:	.asciz	"do_ofind"
n1820:	.asciz	"do_oinvoke"
n1821:	.asciz	"do_olist"
n1822:	.asciz	"do_oowner"
n1823:	.asciz	"do_opcopy"
n1824:	.asciz	"do_opedit"
n1825:	.asciz	"do_open"
n1826:	.asciz	"do_opstat"
n1827:	.asciz	"do_order"
n1828:	.asciz	"do_orders"
n1829:	.asciz	"do_ordertalk"
n1830:	.asciz	"do_oset"
n1831:	.asciz	"do_ostat"
n1832:	.asciz	"do_ot"
n1833:	.asciz	"do_outcast"
n1834:	.asciz	"do_pager"
n1835:	.asciz	"do_pardon"
n1836:	.asciz	"do_password"
n1837:	.asciz	"do_pcrename"
n1838:	.asciz	"do_peace"
n1839:	.asciz	"do_pick"
n1840:	.asciz	"do_plist"
n1841:	.asciz	"do_poison_weapon"
n1842:	.asciz	"do_practice"
n1843:	.asciz	"do_project"
n1844:	.asciz	"do_prompt"
n1845:	.asciz	"do_pset"
n1846:	.asciz	"do_pstat"
n1847:	.asciz	"do_pull"
n1848:	.asciz	"do_punch"
n1849:	.asciz	"do_purge"
n1850:	.asciz	"do_push"
n1851:	.asciz	"do_put"
n1852:	.asciz	"do_qpset"
n1853:	.asciz	"do_qpstat"
n1854:	.asciz	"do_quaff"
n1855:	.asciz	"do_quest"
n1856:	.asciz	"do_qui"
n1857:	.asciz	"do_quit"
n1858:	.asciz	"do_racetalk"
n1859:	.asciz	"do_rank"
n1860:	.asciz	"do_rap"
n1861:	.asciz	"do_rat"
n1862:	.asciz	"do_rdelete"
n1863:	.asciz	"do_rdig"
n1864:	.asciz	"do_reboo"
n1865:	.asciz	"do_reboot"
n1866:	.asciz	"do_recall"
n1867:	.asciz	"do_recho"
n1868:	.asciz	"do_recite"
n1869:	.asciz	"do_redit"
n1870:	.asciz	"do_regoto"
n1871:	.asciz	"do_remains"
n1872:	.asciz	"do_remove"
n1873:	.asciz	"do_rent"
n1874:	.asciz	"do_renumber"
n1875:	.asciz	"do_repair"
n1876:	.asciz	"do_repairset"
n1877:	.asciz	"do_repairshops"
n1878:	.asciz	"do_repairstat"
n1879:	.asciz	"do_repeat"
n1880:	.asciz	"do_reply"
n1881:	.asciz	"do_report"
n1882:	.asciz	"do_rescue"
n1883:	.asciz	"do_reserve"
n1884:	.asciz	"do_reset"
n1885:	.asciz	"do_rest"
n1886:	.asciz	"do_restore"
n1887:	.asciz	"do_restoretime"
n1888:	.asciz	"do_restrict"
n1889:	.asciz	"do_retell"
n1890:	.asciz	"do_retire"
n1891:	.asciz	"do_retran"
n1892:	.asciz	"do_return"
n1893:	.asciz	"do_revert"
n1894:	.asciz	"do_rgrid"
n1895:	.asciz	"do_rip"
n1896:	.asciz	"do_rlist"
n1897:	.asciz	"do_rolldie"
n1898:	.asciz	"do_roster"
n1899:	.asciz	"do_rpedit"
n1900:	.asciz	"do_rpstat"
n1901:	.asciz	"do_rstat"
n1902:	.asciz	"do_sacrifice"
n1903:	.asciz	"do_save"
n1904:	.asciz	"do_savearea"
n1905:	.asciz	"do_saveholiday"
n1906:	.asciz	"do_say"
n1907:	.asciz	"do_scan"
n1908:	.asciz	"do_scatter"
n1909:	.asciz	"do_score"
n1910:	.asciz	"do_scribe"
n1911:	.asciz	"do_search"
n1912:	.asciz	"do_sedit"
n1913:	.asciz	"do_sell"
n1914:	.asciz	"do_set_boot_time"
n1915:	.asciz	"do_setclan"
n1916:	.asciz	"do_setclass"
n1917:	.asciz	"do_setcouncil"
n1918:	.asciz	"do_setdeity"
n1919:	.asciz	"do_setholiday"
n1920:	.asciz	"do_setliquid"
n1921:	.asciz	"do_setmixture"
n1922:	.asciz	"do_setmssp"
n1923:	.asciz	"do_setrace"
n1924:	.asciz	"do_setweather"
n1925:	.asciz	"do_shops"
n1926:	.asciz	"do_shopset"
n1927:	.asciz	"do_shopstat"
n1928:	.asciz	"do_shout"
n1929:	.asciz	"do_shove"
n1930:	.asciz	"do_showclan"
n1931:	.asciz	"do_showclass"
n1932:	.asciz	"do_showcouncil"
n1933:	.asciz	"do_showdeity"
n1934:	.asciz	"do_showliquid"
n1935:	.asciz	"do_showmixture"
n1936:	.asciz	"do_showrace"
n1937:	.asciz	"do_showweather"
n1938:	.asciz	"do_shutdow"
n1939:	.asciz	"do_shutdown"
n1940:	.asciz	"do_silence"
n1941:	.asciz	"do_sit"
n1942:	.asciz	"do_skin"
n1943:	.asciz	"do_sla"
n1944:	.asciz	"do_slay"
n1945:	.asciz	"do_sleep"
n1946:	.asciz	"do_slice"
n1947:	.asciz	"do_slist"
n1948:	.asciz	"do_slookup"
n1949:	.asciz	"do_smoke"
n1950:	.asciz	"do_sneak"
n1951:	.asciz	"do_snoop"
n1952:	.asciz	"do_sober"
n1953:	.asciz	"do_socials"
n1954:	.asciz	"do_south"
n1955:	.asciz	"do_southeast"
n1956:	.asciz	"do_southwest"
n1957:	.asciz	"do_speak"
n1958:	.asciz	"do_split"
n1959:	.asciz	"do_sset"
n1960:	.asciz	"do_stand"
n1961:	.asciz	"do_stat"
n1962:	.asciz	"do_statreport"
n1963:	.asciz	"do_statshield"
n1964:	.asciz	"do_steal"
n1965:	.asciz	"do_sting"
n1966:	.asciz	"do_strew"
n1967:	.asciz	"do_strip"
n1968:	.asciz	"do_stun"
n1969:	.asciz	"do_style"
n1970:	.asciz	"do_supplicate"
n1971:	.asciz	"do_switch"
n1972:	.asciz	"do_tail"
n1973:	.asciz	"do_tamp"
n1974:	.asciz	"do_tell"
n1975:	.asciz	"do_think"
n1976:	.asciz	"do_time"
n1977:	.asciz	"do_timecmd"
n1978:	.asciz	"do_timezone"
n1979:	.asciz	"do_title"
n1980:	.asciz	"do_track"
n1981:	.asciz	"do_traffic"
n1982:	.asciz	"do_transfer"
n1983:	.asciz	"do_trust"
n1984:	.asciz	"do_typo"
n1985:	.asciz	"do_unbolt"
n1986:	.asciz	"do_unfoldarea"
n1987:	.asciz	"do_unhell"
n1988:	.asciz	"do_unlock"
n1989:	.asciz	"do_unnuisance"
n1990:	.asciz	"do_unsilence"
n1991:	.asciz	"do_up"
n1992:	.asciz	"do_users"
n1993:	.asciz	"do_value"
n1994:	.asciz	"do_vassign"
n1995:	.asciz	"do_version"
n1996:	.asciz	"do_victories"
n1997:	.asciz	"do_visible"
n1998:	.asciz	"do_vnums"
n1999:	.asciz	"do_vsearch"
n2000:	.asciz	"do_vstat"
n2001:	.asciz	"do_wake"
n2002:	.asciz	"do_warn"
n2003:	.asciz	"do_wartalk"
n2004:	.asciz	"do_watch"
n2005:	.asciz	"do_wear"
n2006:	.asciz	"do_weather"
n2007:	.asciz	"do_west"
n2008:	.asciz	"do_where"
n2009:	.asciz	"do_whisper"
n2010:	.asciz	"do_who"
n2011:	.asciz	"do_whois"
n2012:	.asciz	"do_wimpy"
n2013:	.asciz	"do_wizhelp"
n2014:	.asciz	"do_wizlist"
n2015:	.asciz	"do_wizlock"
n2016:	.asciz	"do_worth"
n2017:	.asciz	"do_yell"
n2018:	.asciz	"do_zap"
n2019:	.asciz	"do_zones"
n2020:	.asciz	"ex_flags"
n2021:	.asciz	"ex_pair"
n2022:	.asciz	"ex_pearth"
n2023:	.asciz	"ex_pfire"
n2024:	.asciz	"ex_pmisc"
n2025:	.asciz	"ex_pwater"
n2026:	.asciz	"exc_set"
n2027:	.asciz	"extracted_char_queue"
n2028:	.asciz	"extracted_obj_queue"
n2029:	.asciz	"fBootDb"
n2030:	.asciz	"fLogAll"
n2031:	.asciz	"falling"
n2032:	.asciz	"file_ver"
n2033:	.asciz	"first_area"
n2034:	.asciz	"first_area_name"
n2035:	.asciz	"first_asort"
n2036:	.asciz	"first_ban"
n2037:	.asciz	"first_ban_class"
n2038:	.asciz	"first_ban_race"
n2039:	.asciz	"first_board"
n2040:	.asciz	"first_bsort"
n2041:	.asciz	"first_build"
n2042:	.asciz	"first_cache"
n2043:	.asciz	"first_char"
n2044:	.asciz	"first_clan"
n2045:	.asciz	"first_council"
n2046:	.asciz	"first_deity"
n2047:	.asciz	"first_descriptor"
n2048:	.asciz	"first_help"
n2049:	.asciz	"first_hint"
n2050:	.asciz	"first_holiday"
n2051:	.asciz	"first_lang"
n2052:	.asciz	"first_lmsg"
n2053:	.asciz	"first_map"
n2054:	.asciz	"first_mixture"
n2055:	.asciz	"first_mpsleep"
n2056:	.asciz	"first_news_type"
n2057:	.asciz	"first_object"
n2058:	.asciz	"first_plane"
n2059:	.asciz	"first_project"
n2060:	.asciz	"first_relation"
n2061:	.asciz	"first_repair"
n2062:	.asciz	"first_reserved"
n2063:	.asciz	"first_shop"
n2064:	.asciz	"first_specfun"
n2065:	.asciz	"first_teleport"
n2066:	.asciz	"first_watch"
n2067:	.asciz	"first_whogr"
n2068:	.asciz	"first_wiz"
n2069:	.asciz	"fpArea"
n2070:	.asciz	"global_objcode"
n2071:	.asciz	"global_retcode"
n2072:	.asciz	"gsn_aid"
n2073:	.asciz	"gsn_aqua_breath"
n2074:	.asciz	"gsn_backstab"
n2075:	.asciz	"gsn_bash"
n2076:	.asciz	"gsn_bashdoor"
n2077:	.asciz	"gsn_berserk"
n2078:	.asciz	"gsn_bite"
n2079:	.asciz	"gsn_blindness"
n2080:	.asciz	"gsn_bloodlet"
n2081:	.asciz	"gsn_bludgeons"
n2082:	.asciz	"gsn_brew"
n2083:	.asciz	"gsn_broach"
n2084:	.asciz	"gsn_charm_person"
n2085:	.asciz	"gsn_chill_touch"
n2086:	.asciz	"gsn_circle"
n2087:	.asciz	"gsn_claw"
n2088:	.asciz	"gsn_climb"
n2089:	.asciz	"gsn_common"
n2090:	.asciz	"gsn_cook"
n2091:	.asciz	"gsn_curse"
n2092:	.asciz	"gsn_detrap"
n2093:	.asciz	"gsn_dig"
n2094:	.asciz	"gsn_disarm"
n2095:	.asciz	"gsn_dodge"
n2096:	.asciz	"gsn_dual_wield"
n2097:	.asciz	"gsn_dwarven"
n2098:	.asciz	"gsn_elven"
n2099:	.asciz	"gsn_enhanced_damage"
n2100:	.asciz	"gsn_feed"
n2101:	.asciz	"gsn_fifth_attack"
n2102:	.asciz	"gsn_fireball"
n2103:	.asciz	"gsn_flexible_arms"
n2104:	.asciz	"gsn_fourth_attack"
n2105:	.asciz	"gsn_goblin"
n2106:	.asciz	"gsn_gouge"
n2107:	.asciz	"gsn_grip"
n2108:	.asciz	"gsn_halfling"
n2109:	.asciz	"gsn_hide"
n2110:	.asciz	"gsn_hitall"
n2111:	.asciz	"gsn_invis"
n2112:	.asciz	"gsn_kick"
n2113:	.asciz	"gsn_lightning_bolt"
n2114:	.asciz	"gsn_long_blades"
n2115:	.asciz	"gsn_mass_invis"
n2116:	.asciz	"gsn_missile_weapons"
n2117:	.asciz	"gsn_mistwalk"
n2118:	.asciz	"gsn_mount"
n2119:	.asciz	"gsn_ogre"
n2120:	.asciz	"gsn_orcish"
n2121:	.asciz	"gsn_parry"
n2122:	.asciz	"gsn_peek"
n2123:	.asciz	"gsn_pick_lock"
n2124:	.asciz	"gsn_pixie"
n2125:	.asciz	"gsn_poison"
n2126:	.asciz	"gsn_poison_weapon"
n2127:	.asciz	"gsn_possess"
n2128:	.asciz	"gsn_pugilism"
n2129:	.asciz	"gsn_punch"
n2130:	.asciz	"gsn_rescue"
n2131:	.asciz	"gsn_scan"
n2132:	.asciz	"gsn_scribe"
n2133:	.asciz	"gsn_search"
n2134:	.asciz	"gsn_second_attack"
n2135:	.asciz	"gsn_short_blades"
n2136:	.asciz	"gsn_sleep"
n2137:	.asciz	"gsn_slice"
n2138:	.asciz	"gsn_sneak"
n2139:	.asciz	"gsn_steal"
n2140:	.asciz	"gsn_sting"
n2141:	.asciz	"gsn_stun"
n2142:	.asciz	"gsn_style_aggressive"
n2143:	.asciz	"gsn_style_berserk"
n2144:	.asciz	"gsn_style_defensive"
n2145:	.asciz	"gsn_style_evasive"
n2146:	.asciz	"gsn_style_standard"
n2147:	.asciz	"gsn_tail"
n2148:	.asciz	"gsn_talonous_arms"
n2149:	.asciz	"gsn_third_attack"
n2150:	.asciz	"gsn_track"
n2151:	.asciz	"gsn_trollish"
n2152:	.asciz	"gsn_tumble"
n2153:	.asciz	"help_greeting"
n2154:	.asciz	"herb_table"
n2155:	.asciz	"immortal_host_end"
n2156:	.asciz	"immortal_host_start"
n2157:	.asciz	"in_set"
n2158:	.asciz	"int_app"
n2159:	.asciz	"item_w_flags"
n2160:	.asciz	"lang_array"
n2161:	.asciz	"lang_names"
n2162:	.asciz	"last_area"
n2163:	.asciz	"last_area_name"
n2164:	.asciz	"last_asort"
n2165:	.asciz	"last_ban"
n2166:	.asciz	"last_ban_class"
n2167:	.asciz	"last_ban_race"
n2168:	.asciz	"last_board"
n2169:	.asciz	"last_bsort"
n2170:	.asciz	"last_build"
n2171:	.asciz	"last_cache"
n2172:	.asciz	"last_char"
n2173:	.asciz	"last_clan"
n2174:	.asciz	"last_council"
n2175:	.asciz	"last_deity"
n2176:	.asciz	"last_descriptor"
n2177:	.asciz	"last_help"
n2178:	.asciz	"last_hint"
n2179:	.asciz	"last_holiday"
n2180:	.asciz	"last_lang"
n2181:	.asciz	"last_lmsg"
n2182:	.asciz	"last_mixture"
n2183:	.asciz	"last_mpsleep"
n2184:	.asciz	"last_news_type"
n2185:	.asciz	"last_object"
n2186:	.asciz	"last_pkroom"
n2187:	.asciz	"last_plane"
n2188:	.asciz	"last_project"
n2189:	.asciz	"last_relation"
n2190:	.asciz	"last_repair"
n2191:	.asciz	"last_reserved"
n2192:	.asciz	"last_restore_all_time"
n2193:	.asciz	"last_shop"
n2194:	.asciz	"last_specfun"
n2195:	.asciz	"last_teleport"
n2196:	.asciz	"last_watch"
n2197:	.asciz	"last_whogr"
n2198:	.asciz	"last_wiz"
n2199:	.asciz	"lastplayercmd"
n2200:	.asciz	"lck_app"
n2201:	.asciz	"liq_count"
n2202:	.asciz	"liq_table"
n2203:	.asciz	"liquid_table"
n2204:	.asciz	"loading_char"
n2205:	.asciz	"main"
n2206:	.asciz	"maxdesc"
n2207:	.asciz	"mob_act_list"
n2208:	.asciz	"mob_index_hash"
n2209:	.asciz	"mob_save_equipment"
n2210:	.asciz	"month_name"
n2211:	.asciz	"moon_map"
n2212:	.asciz	"morph_end"
n2213:	.asciz	"morph_start"
n2214:	.asciz	"morph_vnum"
n2215:	.asciz	"movement_loss"
n2216:	.asciz	"mssp_info"
n2217:	.asciz	"mud_down"
n2218:	.asciz	"mud_start_time"
n2219:	.asciz	"new_boot_struct"
n2220:	.asciz	"new_boot_time"
n2221:	.asciz	"new_boot_time_t"
n2222:	.asciz	"newdesc"
n2223:	.asciz	"news_command_table"
n2224:	.asciz	"npc_class"
n2225:	.asciz	"npc_position"
n2226:	.asciz	"npc_race"
n2227:	.asciz	"npc_sex"
n2228:	.asciz	"num_descriptors"
n2229:	.asciz	"num_skills"
n2230:	.asciz	"num_sorted_skills"
n2231:	.asciz	"nummobsloaded"
n2232:	.asciz	"numobjsloaded"
n2233:	.asciz	"o_flags"
n2234:	.asciz	"o_types"
n2235:	.asciz	"obj_act_list"
n2236:	.asciz	"obj_index_hash"
n2237:	.asciz	"out_set"
n2238:	.asciz	"pAbort"
n2239:	.asciz	"p_blade_messages"
n2240:	.asciz	"p_blunt_messages"
n2241:	.asciz	"p_generic_messages"
n2242:	.asciz	"p_message_table"
n2243:	.asciz	"part_flags"
n2244:	.asciz	"part_messages"
n2245:	.asciz	"part_vnums"
n2246:	.asciz	"pc_flags"
n2247:	.asciz	"physicalobjects"
n2248:	.asciz	"plr_flags"
n2249:	.asciz	"port"
n2250:	.asciz	"precip_msg"
n2251:	.asciz	"precip_settings"
n2252:	.asciz	"preciptemp_msg"
n2253:	.asciz	"quitting_char"
n2254:	.asciz	"r_flags"
n2255:	.asciz	"race_table"
n2256:	.asciz	"ranged_target_name"
n2257:	.asciz	"reboot_time"
n2258:	.asciz	"rev_dir"
n2259:	.asciz	"ris_flags"
n2260:	.asciz	"room_act_list"
n2261:	.asciz	"room_index_hash"
n2262:	.asciz	"s_blade_messages"
n2263:	.asciz	"s_blunt_messages"
n2264:	.asciz	"s_generic_messages"
n2265:	.asciz	"s_message_table"
n2266:	.asciz	"save_equipment"
n2267:	.asciz	"saving_char"
n2268:	.asciz	"season_name"
n2269:	.asciz	"sec_flags"
n2270:	.asciz	"service_shut_down"
n2271:	.asciz	"set_boot_time"
n2272:	.asciz	"set_boot_time_struct"
n2273:	.asciz	"silence_locate_targets"
n2274:	.asciz	"skill_notfound"
n2275:	.asciz	"skill_table"
n2276:	.asciz	"skill_table_bytype"
n2277:	.asciz	"skill_tname"
n2278:	.asciz	"social_index"
n2279:	.asciz	"spec_breath_acid"
n2280:	.asciz	"spec_breath_any"
n2281:	.asciz	"spec_breath_fire"
n2282:	.asciz	"spec_breath_frost"
n2283:	.asciz	"spec_breath_gas"
n2284:	.asciz	"spec_breath_lightning"
n2285:	.asciz	"spec_cast_adept"
n2286:	.asciz	"spec_cast_cleric"
n2287:	.asciz	"spec_cast_mage"
n2288:	.asciz	"spec_cast_undead"
n2289:	.asciz	"spec_executioner"
n2290:	.asciz	"spec_fido"
n2291:	.asciz	"spec_guard"
n2292:	.asciz	"spec_janitor"
n2293:	.asciz	"spec_mayor"
n2294:	.asciz	"spec_poison"
n2295:	.asciz	"spec_thief"
n2296:	.asciz	"spec_wanderer"
n2297:	.asciz	"spell_acetum_primus"
n2298:	.asciz	"spell_acid_blast"
n2299:	.asciz	"spell_acid_breath"
n2300:	.asciz	"spell_animate_dead"
n2301:	.asciz	"spell_astral_walk"
n2302:	.asciz	"spell_bethsaidean_touch"
n2303:	.asciz	"spell_black_fist"
n2304:	.asciz	"spell_black_hand"
n2305:	.asciz	"spell_black_lightning"
n2306:	.asciz	"spell_blindness"
n2307:	.asciz	"spell_burning_hands"
n2308:	.asciz	"spell_call_lightning"
n2309:	.asciz	"spell_cause_critical"
n2310:	.asciz	"spell_cause_light"
n2311:	.asciz	"spell_cause_serious"
n2312:	.asciz	"spell_caustic_fount"
n2313:	.asciz	"spell_change_sex"
n2314:	.asciz	"spell_charm_person"
n2315:	.asciz	"spell_chill_touch"
n2316:	.asciz	"spell_colour_spray"
n2317:	.asciz	"spell_control_weather"
n2318:	.asciz	"spell_create_food"
n2319:	.asciz	"spell_create_water"
n2320:	.asciz	"spell_cure_blindness"
n2321:	.asciz	"spell_cure_poison"
n2322:	.asciz	"spell_curse"
n2323:	.asciz	"spell_detect_poison"
n2324:	.asciz	"spell_disenchant_weapon"
n2325:	.asciz	"spell_dispel_evil"
n2326:	.asciz	"spell_dispel_magic"
n2327:	.asciz	"spell_disruption"
n2328:	.asciz	"spell_dream"
n2329:	.asciz	"spell_earthquake"
n2330:	.asciz	"spell_enchant_weapon"
n2331:	.asciz	"spell_energy_drain"
n2332:	.asciz	"spell_ethereal_fist"
n2333:	.asciz	"spell_expurgation"
n2334:	.asciz	"spell_faerie_fire"
n2335:	.asciz	"spell_faerie_fog"
n2336:	.asciz	"spell_farsight"
n2337:	.asciz	"spell_fire_breath"
n2338:	.asciz	"spell_fireball"
n2339:	.asciz	"spell_flamestrike"
n2340:	.asciz	"spell_frost_breath"
n2341:	.asciz	"spell_galvanic_whip"
n2342:	.asciz	"spell_gas_breath"
n2343:	.asciz	"spell_gate"
n2344:	.asciz	"spell_hand_of_chaos"
n2345:	.asciz	"spell_harm"
n2346:	.asciz	"spell_helical_flow"
n2347:	.asciz	"spell_identify"
n2348:	.asciz	"spell_invis"
n2349:	.asciz	"spell_knock"
n2350:	.asciz	"spell_know_alignment"
n2351:	.asciz	"spell_lightning_bolt"
n2352:	.asciz	"spell_lightning_breath"
n2353:	.asciz	"spell_locate_object"
n2354:	.asciz	"spell_magic_missile"
n2355:	.asciz	"spell_magnetic_thrust"
n2356:	.asciz	"spell_midas_touch"
n2357:	.asciz	"spell_mind_wrack"
n2358:	.asciz	"spell_mind_wrench"
n2359:	.asciz	"spell_mist_walk"
n2360:	.asciz	"spell_notfound"
n2361:	.asciz	"spell_null"
n2362:	.asciz	"spell_pass_door"
n2363:	.asciz	"spell_plant_pass"
n2364:	.asciz	"spell_poison"
n2365:	.asciz	"spell_polymorph"
n2366:	.asciz	"spell_portal"
n2367:	.asciz	"spell_possess"
n2368:	.asciz	"spell_quantum_spike"
n2369:	.asciz	"spell_recharge"
n2370:	.asciz	"spell_remove_curse"
n2371:	.asciz	"spell_remove_invis"
n2372:	.asciz	"spell_remove_trap"
n2373:	.asciz	"spell_revive"
n2374:	.asciz	"spell_sacral_divinity"
n2375:	.asciz	"spell_scorching_surge"
n2376:	.asciz	"spell_shocking_grasp"
n2377:	.asciz	"spell_sleep"
n2378:	.asciz	"spell_smaug"
n2379:	.asciz	"spell_solar_flight"
n2380:	.asciz	"spell_sonic_resonance"
n2381:	.asciz	"spell_spectral_furor"
n2382:	.asciz	"spell_spiral_blast"
n2383:	.asciz	"spell_sulfurous_spray"
n2384:	.asciz	"spell_summon"
n2385:	.asciz	"spell_teleport"
n2386:	.asciz	"spell_transport"
n2387:	.asciz	"spell_ventriloquate"
n2388:	.asciz	"spell_weaken"
n2389:	.asciz	"spell_word_of_recall"
n2390:	.asciz	"star_map"
n2391:	.asciz	"start_compress2_str"
n2392:	.asciz	"strArea"
n2393:	.asciz	"str_app"
n2394:	.asciz	"str_boot_time"
n2395:	.asciz	"string_hash"
n2396:	.asciz	"sun_map"
n2397:	.asciz	"supermob"
n2398:	.asciz	"supermob_obj"
n2399:	.asciz	"sysdata"
n2400:	.asciz	"target_name"
n2401:	.asciz	"temp_settings"
n2402:	.asciz	"text_map"
n2403:	.asciz	"time_info"
n2404:	.asciz	"timechar"
n2405:	.asciz	"title_table"
n2406:	.asciz	"top_affect"
n2407:	.asciz	"top_area"
n2408:	.asciz	"top_ed"
n2409:	.asciz	"top_exit"
n2410:	.asciz	"top_help"
n2411:	.asciz	"top_herb"
n2412:	.asciz	"top_liquid"
n2413:	.asciz	"top_mob_index"
n2414:	.asciz	"top_news_type"
n2415:	.asciz	"top_obj_index"
n2416:	.asciz	"top_repair"
n2417:	.asciz	"top_reset"
n2418:	.asciz	"top_room"
n2419:	.asciz	"top_shop"
n2420:	.asciz	"top_vroom"
n2421:	.asciz	"trap_door"
n2422:	.asciz	"trap_flags"
n2423:	.asciz	"trig_flags"
n2424:	.asciz	"trw_heap"
n2425:	.asciz	"trw_loops"
n2426:	.asciz	"tzone_table"
n2427:	.asciz	"used_weapon"
n2428:	.asciz	"version"
n2429:	.asciz	"vroom_hash"
n2430:	.asciz	"w_flags"
n2431:	.asciz	"wear_locs"
n2432:	.asciz	"weatherDelta"
n2433:	.asciz	"weatherMap"
n2434:	.asciz	"where_name"
n2435:	.asciz	"will_compress2_str"
n2436:	.asciz	"wind_msg"
n2437:	.asciz	"wind_settings"
n2438:	.asciz	"windtemp_msg"
n2439:	.asciz	"winter_freeze"
n1:	.asciz	"wis_app"
